Archive member included because of file (symbol)

c:/program files (x86)/microchip/xc32/v1.34/bin/bin/../../lib/gcc/pic32mx/4.5.2/../../../../pic32mx/lib\libmchp_peripheral.a(read_core_timer_lib.o)
                              build/XC32-PIC32_ETH_SK_ETH795/production/_ext/1954962658/ETHPIC32ExtPhy.o (ReadCoreTimer)
c:/program files (x86)/microchip/xc32/v1.34/bin/bin/../../lib/gcc/pic32mx/4.5.2/../../../../pic32mx/lib\libmchp_peripheral_32MX795F512L.a(eth_ack_packet_lib.o)
                              build/XC32-PIC32_ETH_SK_ETH795/production/_ext/1954962658/ETHPIC32IntMac.o (EthRxAcknowledgeBuffer)
c:/program files (x86)/microchip/xc32/v1.34/bin/bin/../../lib/gcc/pic32mx/4.5.2/../../../../pic32mx/lib\libmchp_peripheral_32MX795F512L.a(eth_descriptors_add_lib.o)
                              build/XC32-PIC32_ETH_SK_ETH795/production/_ext/1954962658/ETHPIC32IntMac.o (EthDescriptorsPoolAdd)
c:/program files (x86)/microchip/xc32/v1.34/bin/bin/../../lib/gcc/pic32mx/4.5.2/../../../../pic32mx/lib\libmchp_peripheral_32MX795F512L.a(eth_init_lib.o)
                              build/XC32-PIC32_ETH_SK_ETH795/production/_ext/1954962658/ETHPIC32IntMac.o (EthInit)
c:/program files (x86)/microchip/xc32/v1.34/bin/bin/../../lib/gcc/pic32mx/4.5.2/../../../../pic32mx/lib\libmchp_peripheral_32MX795F512L.a(eth_mac_open_lib.o)
                              build/XC32-PIC32_ETH_SK_ETH795/production/_ext/1954962658/ETHPIC32IntMac.o (EthMACOpen)
c:/program files (x86)/microchip/xc32/v1.34/bin/bin/../../lib/gcc/pic32mx/4.5.2/../../../../pic32mx/lib\libmchp_peripheral_32MX795F512L.a(eth_mac_set_address_max_lib.o)
                              build/XC32-PIC32_ETH_SK_ETH795/production/_ext/1954962658/ETHPIC32IntMac.o (EthMACSetAddress)
c:/program files (x86)/microchip/xc32/v1.34/bin/bin/../../lib/gcc/pic32mx/4.5.2/../../../../pic32mx/lib\libmchp_peripheral_32MX795F512L.a(eth_rx_buffers_append_lib.o)
                              build/XC32-PIC32_ETH_SK_ETH795/production/_ext/1954962658/ETHPIC32IntMac.o (EthRxBuffersAppend)
c:/program files (x86)/microchip/xc32/v1.34/bin/bin/../../lib/gcc/pic32mx/4.5.2/../../../../pic32mx/lib\libmchp_peripheral_32MX795F512L.a(eth_rx_filters_lib.o)
                              build/XC32-PIC32_ETH_SK_ETH795/production/_ext/1954962658/ETHPIC32IntMac.o (EthRxFiltersSet)
c:/program files (x86)/microchip/xc32/v1.34/bin/bin/../../lib/gcc/pic32mx/4.5.2/../../../../pic32mx/lib\libmchp_peripheral_32MX795F512L.a(eth_rx_get_packet_lib.o)
                              build/XC32-PIC32_ETH_SK_ETH795/production/_ext/1954962658/ETHPIC32IntMac.o (EthRxGetBuffer)
c:/program files (x86)/microchip/xc32/v1.34/bin/bin/../../lib/gcc/pic32mx/4.5.2/../../../../pic32mx/lib\libmchp_peripheral_32MX795F512L.a(eth_rx_set_buffer_size_lib.o)
                              build/XC32-PIC32_ETH_SK_ETH795/production/_ext/1954962658/ETHPIC32IntMac.o (EthRxSetBufferSize)
c:/program files (x86)/microchip/xc32/v1.34/bin/bin/../../lib/gcc/pic32mx/4.5.2/../../../../pic32mx/lib\libmchp_peripheral_32MX795F512L.a(eth_tx_packet_lib.o)
                              build/XC32-PIC32_ETH_SK_ETH795/production/_ext/1954962658/ETHPIC32IntMac.o (EthTxSendBuffer)
c:/program files (x86)/microchip/xc32/v1.34/bin/bin/../../lib/gcc/pic32mx/4.5.2/../../../../pic32mx/lib\libmchp_peripheral_32MX795F512L.a(_eth_append_busy_list_lib.o)
                              c:/program files (x86)/microchip/xc32/v1.34/bin/bin/../../lib/gcc/pic32mx/4.5.2/../../../../pic32mx/lib\libmchp_peripheral_32MX795F512L.a(eth_ack_packet_lib.o) (_EthAppendBusyList)
c:/program files (x86)/microchip/xc32/v1.34/bin/bin/../../lib/gcc/pic32mx/4.5.2/../../../../pic32mx/lib\libmchp_peripheral_32MX795F512L.a(eth_miim_access.o)
                              build/XC32-PIC32_ETH_SK_ETH795/production/_ext/1954962658/ETHPIC32ExtPhy.o (EthMIIMReadStart)
c:/program files (x86)/microchip/xc32/v1.34/bin/bin/../../lib/gcc/pic32mx/4.5.2/../../../../pic32mx/lib\libmchp_peripheral_32MX795F512L.a(pcache.o)
                              build/XC32-PIC32_ETH_SK_ETH795/production/_ext/1472/MainDemo.o (CheKseg0CacheOn)
c:/program files (x86)/microchip/xc32/v1.34/bin/bin/../../lib/gcc/pic32mx/4.5.2/../../../../pic32mx/lib\libmchp_peripheral_32MX795F512L.a(int_disable_interrupts_lib.o)
                              build/XC32-PIC32_ETH_SK_ETH795/production/_ext/1472/MainDemo.o (INTDisableInterrupts)
c:/program files (x86)/microchip/xc32/v1.34/bin/bin/../../lib/gcc/pic32mx/4.5.2/../../../../pic32mx/lib\libmchp_peripheral_32MX795F512L.a(int_restore_interrupts_lib.o)
                              build/XC32-PIC32_ETH_SK_ETH795/production/_ext/1472/MainDemo.o (INTRestoreInterrupts)
c:/program files (x86)/microchip/xc32/v1.34/bin/bin/../../lib/gcc/pic32mx/4.5.2/../../../../pic32mx/lib\libmchp_peripheral_32MX795F512L.a(int_enable_mv_int_lib.o)
                              build/XC32-PIC32_ETH_SK_ETH795/production/_ext/1472/MainDemo.o (INTEnableSystemMultiVectoredInt)
c:/program files (x86)/microchip/xc32/v1.34/bin/bin/../../lib/gcc/pic32mx/4.5.2/../../../../pic32mx/lib\libmchp_peripheral_32MX795F512L.a(int_tbl_lib.o)
                              c:/program files (x86)/microchip/xc32/v1.34/bin/bin/../../lib/gcc/pic32mx/4.5.2/../../../../pic32mx/lib\libmchp_peripheral_32MX795F512L.a(eth_init_lib.o) (INTClearFlag)
c:/program files (x86)/microchip/xc32/v1.34/bin/bin/../../lib/gcc/pic32mx/4.5.2/../../../../pic32mx/lib\libmchp_peripheral_32MX795F512L.a(port_set_pins_digital_in_lib.o)
                              build/XC32-PIC32_ETH_SK_ETH795/production/_ext/1954962658/ETHPIC32ExtPhy.o (PORTSetPinsDigitalIn)
c:/program files (x86)/microchip/xc32/v1.34/bin/bin/../../lib/gcc/pic32mx/4.5.2/../../../../pic32mx/lib\libmchp_peripheral_32MX795F512L.a(port_set_pins_digital_out_lib.o)
                              build/XC32-PIC32_ETH_SK_ETH795/production/_ext/1954962658/ETHPIC32ExtPhy.o (PORTSetPinsDigitalOut)
c:/program files (x86)/microchip/xc32/v1.34/bin/bin/../../lib/gcc/pic32mx/4.5.2/../../../../pic32mx/lib\libmchp_peripheral_32MX795F512L.a(_ports_tbl_libp.o)
                              c:/program files (x86)/microchip/xc32/v1.34/bin/bin/../../lib/gcc/pic32mx/4.5.2/../../../../pic32mx/lib\libmchp_peripheral_32MX795F512L.a(port_set_pins_digital_in_lib.o) (PortRegTbl)
c:/program files (x86)/microchip/xc32/v1.34/bin/bin/../../lib/gcc/pic32mx/4.5.2/../../../../pic32mx/lib\libmchp_peripheral_32MX795F512L.a(int_enable_interrupts_lib.o)
                              c:/program files (x86)/microchip/xc32/v1.34/bin/bin/../../lib/gcc/pic32mx/4.5.2/../../../../pic32mx/lib\libmchp_peripheral_32MX795F512L.a(int_enable_mv_int_lib.o) (INTEnableInterrupts)
c:/program files (x86)/microchip/xc32/v1.34/bin/bin/../../lib/gcc/pic32mx/4.5.2\libgcc.a(_udivdi3.o)
                              build/XC32-PIC32_ETH_SK_ETH795/production/_ext/1954962658/Tick.o (__udivdi3)
c:/program files (x86)/microchip/xc32/v1.34/bin/bin/../../lib/gcc/pic32mx/4.5.2\libgcc.a(_umoddi3.o)
                              build/XC32-PIC32_ETH_SK_ETH795/production/_ext/1954962658/DHCP.o (__umoddi3)
c:/program files (x86)/microchip/xc32/v1.34/bin/bin/../../lib/gcc/pic32mx/4.5.2/../../../../pic32mx/lib\libpic32.a(memcmp.o)
                              build/XC32-PIC32_ETH_SK_ETH795/production/_ext/1954962658/ETHPIC32IntMac.o (memcmp)
c:/program files (x86)/microchip/xc32/v1.34/bin/bin/../../lib/gcc/pic32mx/4.5.2/../../../../pic32mx/lib\libpic32.a(memcpy.o)
                              build/XC32-PIC32_ETH_SK_ETH795/production/_ext/1954962658/ARP.o (memcpy)
c:/program files (x86)/microchip/xc32/v1.34/bin/bin/../../lib/gcc/pic32mx/4.5.2/../../../../pic32mx/lib\libpic32.a(memset.o)
                              build/XC32-PIC32_ETH_SK_ETH795/production/_ext/1954962658/DHCP.o (memset)
c:/program files (x86)/microchip/xc32/v1.34/bin/bin/../../lib/gcc/pic32mx/4.5.2/../../../../pic32mx/lib\libpic32.a(strlen.o)
                              build/XC32-PIC32_ETH_SK_ETH795/production/_ext/1954962658/Helpers.o (strlen)
c:/program files (x86)/microchip/xc32/v1.34/bin/bin/../../lib/gcc/pic32mx/4.5.2/../../../../pic32mx/lib\libpic32.a(default-bootstrap-exception-handler.o)
                              c:/program files (x86)/microchip/xc32/v1.34/bin/bin/../../lib/gcc/pic32mx/4.5.2/../../../../pic32mx/lib/./proc/32MX795F512L/crt0_mips32r2.o (_bootstrap_exception_handler)
c:/program files (x86)/microchip/xc32/v1.34/bin/bin/../../lib/gcc/pic32mx/4.5.2/../../../../pic32mx/lib\libpic32.a(default-on-reset.o)
                              c:/program files (x86)/microchip/xc32/v1.34/bin/bin/../../lib/gcc/pic32mx/4.5.2/../../../../pic32mx/lib/./proc/32MX795F512L/crt0_mips32r2.o (_on_reset)
c:/program files (x86)/microchip/xc32/v1.34/bin/bin/../../lib/gcc/pic32mx/4.5.2/../../../../pic32mx/lib\libpic32.a(default-on-bootstrap.o)
                              c:/program files (x86)/microchip/xc32/v1.34/bin/bin/../../lib/gcc/pic32mx/4.5.2/../../../../pic32mx/lib/./proc/32MX795F512L/crt0_mips32r2.o (_on_bootstrap)
c:/program files (x86)/microchip/xc32/v1.34/bin/bin/../../lib/gcc/pic32mx/4.5.2/../../../../pic32mx/lib\libpic32.a(default-nmi-handler.o)
                              c:/program files (x86)/microchip/xc32/v1.34/bin/bin/../../lib/gcc/pic32mx/4.5.2/../../../../pic32mx/lib/./proc/32MX795F512L/crt0_mips32r2.o (_nmi_handler)
c:/program files (x86)/microchip/xc32/v1.34/bin/bin/../../lib/gcc/pic32mx/4.5.2/../../../../pic32mx/lib\libpic32.a(general-exception.o)
                              c:/program files (x86)/microchip/xc32/v1.34/bin/bin/../../lib/gcc/pic32mx/4.5.2/../../../../pic32mx/lib/./proc/32MX795F512L/crt0_mips32r2.o (_general_exception_context)
c:/program files (x86)/microchip/xc32/v1.34/bin/bin/../../lib/gcc/pic32mx/4.5.2/../../../../pic32mx/lib\libpic32.a(vector0.o)
                              c:/program files (x86)/microchip/xc32/v1.34/bin/bin/../../lib/gcc/pic32mx/4.5.2/../../../../pic32mx/lib/./proc/32MX795F512L\default_isr_vectors.o (__vector_dispatch_0)
c:/program files (x86)/microchip/xc32/v1.34/bin/bin/../../lib/gcc/pic32mx/4.5.2/../../../../pic32mx/lib\libpic32.a(vector1.o)
                              c:/program files (x86)/microchip/xc32/v1.34/bin/bin/../../lib/gcc/pic32mx/4.5.2/../../../../pic32mx/lib/./proc/32MX795F512L\default_isr_vectors.o (__vector_dispatch_1)
c:/program files (x86)/microchip/xc32/v1.34/bin/bin/../../lib/gcc/pic32mx/4.5.2/../../../../pic32mx/lib\libpic32.a(vector2.o)
                              c:/program files (x86)/microchip/xc32/v1.34/bin/bin/../../lib/gcc/pic32mx/4.5.2/../../../../pic32mx/lib/./proc/32MX795F512L\default_isr_vectors.o (__vector_dispatch_2)
c:/program files (x86)/microchip/xc32/v1.34/bin/bin/../../lib/gcc/pic32mx/4.5.2/../../../../pic32mx/lib\libpic32.a(vector3.o)
                              c:/program files (x86)/microchip/xc32/v1.34/bin/bin/../../lib/gcc/pic32mx/4.5.2/../../../../pic32mx/lib/./proc/32MX795F512L\default_isr_vectors.o (__vector_dispatch_3)
c:/program files (x86)/microchip/xc32/v1.34/bin/bin/../../lib/gcc/pic32mx/4.5.2/../../../../pic32mx/lib\libpic32.a(vector5.o)
                              c:/program files (x86)/microchip/xc32/v1.34/bin/bin/../../lib/gcc/pic32mx/4.5.2/../../../../pic32mx/lib/./proc/32MX795F512L\default_isr_vectors.o (__vector_dispatch_5)
c:/program files (x86)/microchip/xc32/v1.34/bin/bin/../../lib/gcc/pic32mx/4.5.2/../../../../pic32mx/lib\libpic32.a(vector6.o)
                              c:/program files (x86)/microchip/xc32/v1.34/bin/bin/../../lib/gcc/pic32mx/4.5.2/../../../../pic32mx/lib/./proc/32MX795F512L\default_isr_vectors.o (__vector_dispatch_6)
c:/program files (x86)/microchip/xc32/v1.34/bin/bin/../../lib/gcc/pic32mx/4.5.2/../../../../pic32mx/lib\libpic32.a(vector7.o)
                              c:/program files (x86)/microchip/xc32/v1.34/bin/bin/../../lib/gcc/pic32mx/4.5.2/../../../../pic32mx/lib/./proc/32MX795F512L\default_isr_vectors.o (__vector_dispatch_7)
c:/program files (x86)/microchip/xc32/v1.34/bin/bin/../../lib/gcc/pic32mx/4.5.2/../../../../pic32mx/lib\libpic32.a(vector8.o)
                              c:/program files (x86)/microchip/xc32/v1.34/bin/bin/../../lib/gcc/pic32mx/4.5.2/../../../../pic32mx/lib/./proc/32MX795F512L\default_isr_vectors.o (__vector_dispatch_8)
c:/program files (x86)/microchip/xc32/v1.34/bin/bin/../../lib/gcc/pic32mx/4.5.2/../../../../pic32mx/lib\libpic32.a(vector9.o)
                              c:/program files (x86)/microchip/xc32/v1.34/bin/bin/../../lib/gcc/pic32mx/4.5.2/../../../../pic32mx/lib/./proc/32MX795F512L\default_isr_vectors.o (__vector_dispatch_9)
c:/program files (x86)/microchip/xc32/v1.34/bin/bin/../../lib/gcc/pic32mx/4.5.2/../../../../pic32mx/lib\libpic32.a(vector10.o)
                              c:/program files (x86)/microchip/xc32/v1.34/bin/bin/../../lib/gcc/pic32mx/4.5.2/../../../../pic32mx/lib/./proc/32MX795F512L\default_isr_vectors.o (__vector_dispatch_10)
c:/program files (x86)/microchip/xc32/v1.34/bin/bin/../../lib/gcc/pic32mx/4.5.2/../../../../pic32mx/lib\libpic32.a(vector11.o)
                              c:/program files (x86)/microchip/xc32/v1.34/bin/bin/../../lib/gcc/pic32mx/4.5.2/../../../../pic32mx/lib/./proc/32MX795F512L\default_isr_vectors.o (__vector_dispatch_11)
c:/program files (x86)/microchip/xc32/v1.34/bin/bin/../../lib/gcc/pic32mx/4.5.2/../../../../pic32mx/lib\libpic32.a(vector12.o)
                              c:/program files (x86)/microchip/xc32/v1.34/bin/bin/../../lib/gcc/pic32mx/4.5.2/../../../../pic32mx/lib/./proc/32MX795F512L\default_isr_vectors.o (__vector_dispatch_12)
c:/program files (x86)/microchip/xc32/v1.34/bin/bin/../../lib/gcc/pic32mx/4.5.2/../../../../pic32mx/lib\libpic32.a(vector13.o)
                              c:/program files (x86)/microchip/xc32/v1.34/bin/bin/../../lib/gcc/pic32mx/4.5.2/../../../../pic32mx/lib/./proc/32MX795F512L\default_isr_vectors.o (__vector_dispatch_13)
c:/program files (x86)/microchip/xc32/v1.34/bin/bin/../../lib/gcc/pic32mx/4.5.2/../../../../pic32mx/lib\libpic32.a(vector14.o)
                              c:/program files (x86)/microchip/xc32/v1.34/bin/bin/../../lib/gcc/pic32mx/4.5.2/../../../../pic32mx/lib/./proc/32MX795F512L\default_isr_vectors.o (__vector_dispatch_14)
c:/program files (x86)/microchip/xc32/v1.34/bin/bin/../../lib/gcc/pic32mx/4.5.2/../../../../pic32mx/lib\libpic32.a(vector15.o)
                              c:/program files (x86)/microchip/xc32/v1.34/bin/bin/../../lib/gcc/pic32mx/4.5.2/../../../../pic32mx/lib/./proc/32MX795F512L\default_isr_vectors.o (__vector_dispatch_15)
c:/program files (x86)/microchip/xc32/v1.34/bin/bin/../../lib/gcc/pic32mx/4.5.2/../../../../pic32mx/lib\libpic32.a(vector16.o)
                              c:/program files (x86)/microchip/xc32/v1.34/bin/bin/../../lib/gcc/pic32mx/4.5.2/../../../../pic32mx/lib/./proc/32MX795F512L\default_isr_vectors.o (__vector_dispatch_16)
c:/program files (x86)/microchip/xc32/v1.34/bin/bin/../../lib/gcc/pic32mx/4.5.2/../../../../pic32mx/lib\libpic32.a(vector17.o)
                              c:/program files (x86)/microchip/xc32/v1.34/bin/bin/../../lib/gcc/pic32mx/4.5.2/../../../../pic32mx/lib/./proc/32MX795F512L\default_isr_vectors.o (__vector_dispatch_17)
c:/program files (x86)/microchip/xc32/v1.34/bin/bin/../../lib/gcc/pic32mx/4.5.2/../../../../pic32mx/lib\libpic32.a(vector18.o)
                              c:/program files (x86)/microchip/xc32/v1.34/bin/bin/../../lib/gcc/pic32mx/4.5.2/../../../../pic32mx/lib/./proc/32MX795F512L\default_isr_vectors.o (__vector_dispatch_18)
c:/program files (x86)/microchip/xc32/v1.34/bin/bin/../../lib/gcc/pic32mx/4.5.2/../../../../pic32mx/lib\libpic32.a(vector19.o)
                              c:/program files (x86)/microchip/xc32/v1.34/bin/bin/../../lib/gcc/pic32mx/4.5.2/../../../../pic32mx/lib/./proc/32MX795F512L\default_isr_vectors.o (__vector_dispatch_19)
c:/program files (x86)/microchip/xc32/v1.34/bin/bin/../../lib/gcc/pic32mx/4.5.2/../../../../pic32mx/lib\libpic32.a(vector20.o)
                              c:/program files (x86)/microchip/xc32/v1.34/bin/bin/../../lib/gcc/pic32mx/4.5.2/../../../../pic32mx/lib/./proc/32MX795F512L\default_isr_vectors.o (__vector_dispatch_20)
c:/program files (x86)/microchip/xc32/v1.34/bin/bin/../../lib/gcc/pic32mx/4.5.2/../../../../pic32mx/lib\libpic32.a(vector21.o)
                              c:/program files (x86)/microchip/xc32/v1.34/bin/bin/../../lib/gcc/pic32mx/4.5.2/../../../../pic32mx/lib/./proc/32MX795F512L\default_isr_vectors.o (__vector_dispatch_21)
c:/program files (x86)/microchip/xc32/v1.34/bin/bin/../../lib/gcc/pic32mx/4.5.2/../../../../pic32mx/lib\libpic32.a(vector22.o)
                              c:/program files (x86)/microchip/xc32/v1.34/bin/bin/../../lib/gcc/pic32mx/4.5.2/../../../../pic32mx/lib/./proc/32MX795F512L\default_isr_vectors.o (__vector_dispatch_22)
c:/program files (x86)/microchip/xc32/v1.34/bin/bin/../../lib/gcc/pic32mx/4.5.2/../../../../pic32mx/lib\libpic32.a(vector23.o)
                              c:/program files (x86)/microchip/xc32/v1.34/bin/bin/../../lib/gcc/pic32mx/4.5.2/../../../../pic32mx/lib/./proc/32MX795F512L\default_isr_vectors.o (__vector_dispatch_23)
c:/program files (x86)/microchip/xc32/v1.34/bin/bin/../../lib/gcc/pic32mx/4.5.2/../../../../pic32mx/lib\libpic32.a(vector24.o)
                              c:/program files (x86)/microchip/xc32/v1.34/bin/bin/../../lib/gcc/pic32mx/4.5.2/../../../../pic32mx/lib/./proc/32MX795F512L\default_isr_vectors.o (__vector_dispatch_24)
c:/program files (x86)/microchip/xc32/v1.34/bin/bin/../../lib/gcc/pic32mx/4.5.2/../../../../pic32mx/lib\libpic32.a(vector25.o)
                              c:/program files (x86)/microchip/xc32/v1.34/bin/bin/../../lib/gcc/pic32mx/4.5.2/../../../../pic32mx/lib/./proc/32MX795F512L\default_isr_vectors.o (__vector_dispatch_25)
c:/program files (x86)/microchip/xc32/v1.34/bin/bin/../../lib/gcc/pic32mx/4.5.2/../../../../pic32mx/lib\libpic32.a(vector26.o)
                              c:/program files (x86)/microchip/xc32/v1.34/bin/bin/../../lib/gcc/pic32mx/4.5.2/../../../../pic32mx/lib/./proc/32MX795F512L\default_isr_vectors.o (__vector_dispatch_26)
c:/program files (x86)/microchip/xc32/v1.34/bin/bin/../../lib/gcc/pic32mx/4.5.2/../../../../pic32mx/lib\libpic32.a(vector27.o)
                              c:/program files (x86)/microchip/xc32/v1.34/bin/bin/../../lib/gcc/pic32mx/4.5.2/../../../../pic32mx/lib/./proc/32MX795F512L\default_isr_vectors.o (__vector_dispatch_27)
c:/program files (x86)/microchip/xc32/v1.34/bin/bin/../../lib/gcc/pic32mx/4.5.2/../../../../pic32mx/lib\libpic32.a(vector28.o)
                              c:/program files (x86)/microchip/xc32/v1.34/bin/bin/../../lib/gcc/pic32mx/4.5.2/../../../../pic32mx/lib/./proc/32MX795F512L\default_isr_vectors.o (__vector_dispatch_28)
c:/program files (x86)/microchip/xc32/v1.34/bin/bin/../../lib/gcc/pic32mx/4.5.2/../../../../pic32mx/lib\libpic32.a(vector29.o)
                              c:/program files (x86)/microchip/xc32/v1.34/bin/bin/../../lib/gcc/pic32mx/4.5.2/../../../../pic32mx/lib/./proc/32MX795F512L\default_isr_vectors.o (__vector_dispatch_29)
c:/program files (x86)/microchip/xc32/v1.34/bin/bin/../../lib/gcc/pic32mx/4.5.2/../../../../pic32mx/lib\libpic32.a(vector30.o)
                              c:/program files (x86)/microchip/xc32/v1.34/bin/bin/../../lib/gcc/pic32mx/4.5.2/../../../../pic32mx/lib/./proc/32MX795F512L\default_isr_vectors.o (__vector_dispatch_30)
c:/program files (x86)/microchip/xc32/v1.34/bin/bin/../../lib/gcc/pic32mx/4.5.2/../../../../pic32mx/lib\libpic32.a(vector31.o)
                              c:/program files (x86)/microchip/xc32/v1.34/bin/bin/../../lib/gcc/pic32mx/4.5.2/../../../../pic32mx/lib/./proc/32MX795F512L\default_isr_vectors.o (__vector_dispatch_31)
c:/program files (x86)/microchip/xc32/v1.34/bin/bin/../../lib/gcc/pic32mx/4.5.2/../../../../pic32mx/lib\libpic32.a(vector32.o)
                              c:/program files (x86)/microchip/xc32/v1.34/bin/bin/../../lib/gcc/pic32mx/4.5.2/../../../../pic32mx/lib/./proc/32MX795F512L\default_isr_vectors.o (__vector_dispatch_32)
c:/program files (x86)/microchip/xc32/v1.34/bin/bin/../../lib/gcc/pic32mx/4.5.2/../../../../pic32mx/lib\libpic32.a(vector33.o)
                              c:/program files (x86)/microchip/xc32/v1.34/bin/bin/../../lib/gcc/pic32mx/4.5.2/../../../../pic32mx/lib/./proc/32MX795F512L\default_isr_vectors.o (__vector_dispatch_33)
c:/program files (x86)/microchip/xc32/v1.34/bin/bin/../../lib/gcc/pic32mx/4.5.2/../../../../pic32mx/lib\libpic32.a(vector34.o)
                              c:/program files (x86)/microchip/xc32/v1.34/bin/bin/../../lib/gcc/pic32mx/4.5.2/../../../../pic32mx/lib/./proc/32MX795F512L\default_isr_vectors.o (__vector_dispatch_34)
c:/program files (x86)/microchip/xc32/v1.34/bin/bin/../../lib/gcc/pic32mx/4.5.2/../../../../pic32mx/lib\libpic32.a(vector35.o)
                              c:/program files (x86)/microchip/xc32/v1.34/bin/bin/../../lib/gcc/pic32mx/4.5.2/../../../../pic32mx/lib/./proc/32MX795F512L\default_isr_vectors.o (__vector_dispatch_35)
c:/program files (x86)/microchip/xc32/v1.34/bin/bin/../../lib/gcc/pic32mx/4.5.2/../../../../pic32mx/lib\libpic32.a(vector36.o)
                              c:/program files (x86)/microchip/xc32/v1.34/bin/bin/../../lib/gcc/pic32mx/4.5.2/../../../../pic32mx/lib/./proc/32MX795F512L\default_isr_vectors.o (__vector_dispatch_36)
c:/program files (x86)/microchip/xc32/v1.34/bin/bin/../../lib/gcc/pic32mx/4.5.2/../../../../pic32mx/lib\libpic32.a(vector37.o)
                              c:/program files (x86)/microchip/xc32/v1.34/bin/bin/../../lib/gcc/pic32mx/4.5.2/../../../../pic32mx/lib/./proc/32MX795F512L\default_isr_vectors.o (__vector_dispatch_37)
c:/program files (x86)/microchip/xc32/v1.34/bin/bin/../../lib/gcc/pic32mx/4.5.2/../../../../pic32mx/lib\libpic32.a(vector38.o)
                              c:/program files (x86)/microchip/xc32/v1.34/bin/bin/../../lib/gcc/pic32mx/4.5.2/../../../../pic32mx/lib/./proc/32MX795F512L\default_isr_vectors.o (__vector_dispatch_38)
c:/program files (x86)/microchip/xc32/v1.34/bin/bin/../../lib/gcc/pic32mx/4.5.2/../../../../pic32mx/lib\libpic32.a(vector39.o)
                              c:/program files (x86)/microchip/xc32/v1.34/bin/bin/../../lib/gcc/pic32mx/4.5.2/../../../../pic32mx/lib/./proc/32MX795F512L\default_isr_vectors.o (__vector_dispatch_39)
c:/program files (x86)/microchip/xc32/v1.34/bin/bin/../../lib/gcc/pic32mx/4.5.2/../../../../pic32mx/lib\libpic32.a(vector40.o)
                              c:/program files (x86)/microchip/xc32/v1.34/bin/bin/../../lib/gcc/pic32mx/4.5.2/../../../../pic32mx/lib/./proc/32MX795F512L\default_isr_vectors.o (__vector_dispatch_40)
c:/program files (x86)/microchip/xc32/v1.34/bin/bin/../../lib/gcc/pic32mx/4.5.2/../../../../pic32mx/lib\libpic32.a(vector41.o)
                              c:/program files (x86)/microchip/xc32/v1.34/bin/bin/../../lib/gcc/pic32mx/4.5.2/../../../../pic32mx/lib/./proc/32MX795F512L\default_isr_vectors.o (__vector_dispatch_41)
c:/program files (x86)/microchip/xc32/v1.34/bin/bin/../../lib/gcc/pic32mx/4.5.2/../../../../pic32mx/lib\libpic32.a(vector42.o)
                              c:/program files (x86)/microchip/xc32/v1.34/bin/bin/../../lib/gcc/pic32mx/4.5.2/../../../../pic32mx/lib/./proc/32MX795F512L\default_isr_vectors.o (__vector_dispatch_42)
c:/program files (x86)/microchip/xc32/v1.34/bin/bin/../../lib/gcc/pic32mx/4.5.2/../../../../pic32mx/lib\libpic32.a(vector43.o)
                              c:/program files (x86)/microchip/xc32/v1.34/bin/bin/../../lib/gcc/pic32mx/4.5.2/../../../../pic32mx/lib/./proc/32MX795F512L\default_isr_vectors.o (__vector_dispatch_43)
c:/program files (x86)/microchip/xc32/v1.34/bin/bin/../../lib/gcc/pic32mx/4.5.2/../../../../pic32mx/lib\libpic32.a(vector44.o)
                              c:/program files (x86)/microchip/xc32/v1.34/bin/bin/../../lib/gcc/pic32mx/4.5.2/../../../../pic32mx/lib/./proc/32MX795F512L\default_isr_vectors.o (__vector_dispatch_44)
c:/program files (x86)/microchip/xc32/v1.34/bin/bin/../../lib/gcc/pic32mx/4.5.2/../../../../pic32mx/lib\libpic32.a(vector45.o)
                              c:/program files (x86)/microchip/xc32/v1.34/bin/bin/../../lib/gcc/pic32mx/4.5.2/../../../../pic32mx/lib/./proc/32MX795F512L\default_isr_vectors.o (__vector_dispatch_45)
c:/program files (x86)/microchip/xc32/v1.34/bin/bin/../../lib/gcc/pic32mx/4.5.2/../../../../pic32mx/lib\libpic32.a(vector46.o)
                              c:/program files (x86)/microchip/xc32/v1.34/bin/bin/../../lib/gcc/pic32mx/4.5.2/../../../../pic32mx/lib/./proc/32MX795F512L\default_isr_vectors.o (__vector_dispatch_46)
c:/program files (x86)/microchip/xc32/v1.34/bin/bin/../../lib/gcc/pic32mx/4.5.2/../../../../pic32mx/lib\libpic32.a(vector47.o)
                              c:/program files (x86)/microchip/xc32/v1.34/bin/bin/../../lib/gcc/pic32mx/4.5.2/../../../../pic32mx/lib/./proc/32MX795F512L\default_isr_vectors.o (__vector_dispatch_47)
c:/program files (x86)/microchip/xc32/v1.34/bin/bin/../../lib/gcc/pic32mx/4.5.2/../../../../pic32mx/lib\libpic32.a(vector48.o)
                              c:/program files (x86)/microchip/xc32/v1.34/bin/bin/../../lib/gcc/pic32mx/4.5.2/../../../../pic32mx/lib/./proc/32MX795F512L\default_isr_vectors.o (__vector_dispatch_48)
c:/program files (x86)/microchip/xc32/v1.34/bin/bin/../../lib/gcc/pic32mx/4.5.2/../../../../pic32mx/lib\libpic32.a(vector49.o)
                              c:/program files (x86)/microchip/xc32/v1.34/bin/bin/../../lib/gcc/pic32mx/4.5.2/../../../../pic32mx/lib/./proc/32MX795F512L\default_isr_vectors.o (__vector_dispatch_49)
c:/program files (x86)/microchip/xc32/v1.34/bin/bin/../../lib/gcc/pic32mx/4.5.2/../../../../pic32mx/lib\libpic32.a(vector50.o)
                              c:/program files (x86)/microchip/xc32/v1.34/bin/bin/../../lib/gcc/pic32mx/4.5.2/../../../../pic32mx/lib/./proc/32MX795F512L\default_isr_vectors.o (__vector_dispatch_50)
c:/program files (x86)/microchip/xc32/v1.34/bin/bin/../../lib/gcc/pic32mx/4.5.2/../../../../pic32mx/lib\libpic32.a(vector51.o)
                              c:/program files (x86)/microchip/xc32/v1.34/bin/bin/../../lib/gcc/pic32mx/4.5.2/../../../../pic32mx/lib/./proc/32MX795F512L\default_isr_vectors.o (__vector_dispatch_51)
c:/program files (x86)/microchip/xc32/v1.34/bin/bin/../../lib/gcc/pic32mx/4.5.2/../../../../pic32mx/lib\libpic32.a(defaultinterrupt.o)
                              c:/program files (x86)/microchip/xc32/v1.34/bin/bin/../../lib/gcc/pic32mx/4.5.2/../../../../pic32mx/lib\libpic32.a(vector0.o) (_DefaultInterrupt)
c:/program files (x86)/microchip/xc32/v1.34/bin/bin/../../lib/gcc/pic32mx/4.5.2/../../../../pic32mx/lib\libc.a(calloc.o)
                              build/XC32-PIC32_ETH_SK_ETH795/production/_ext/1954962658/ETHPIC32IntMac.o (calloc)
c:/program files (x86)/microchip/xc32/v1.34/bin/bin/../../lib/gcc/pic32mx/4.5.2/../../../../pic32mx/lib\libc.a(malloc.o)
                              c:/program files (x86)/microchip/xc32/v1.34/bin/bin/../../lib/gcc/pic32mx/4.5.2/../../../../pic32mx/lib\libc.a(calloc.o) (malloc)
c:/program files (x86)/microchip/xc32/v1.34/bin/bin/../../lib/gcc/pic32mx/4.5.2/../../../../pic32mx/lib\libc.a(strncpy.o)
                              build/XC32-PIC32_ETH_SK_ETH795/production/_ext/1954962658/Helpers.o (strncpy)
c:/program files (x86)/microchip/xc32/v1.34/bin/bin/../../lib/gcc/pic32mx/4.5.2/../../../../pic32mx/lib\libpic32.a(sbrk.o)
                              c:/program files (x86)/microchip/xc32/v1.34/bin/bin/../../lib/gcc/pic32mx/4.5.2/../../../../pic32mx/lib\libc.a(malloc.o) (sbrk)
c:/program files (x86)/microchip/xc32/v1.34/bin/bin/../../lib/gcc/pic32mx/4.5.2/../../../../pic32mx/lib\libpic32.a(errno.o)
                              c:/program files (x86)/microchip/xc32/v1.34/bin/bin/../../lib/gcc/pic32mx/4.5.2/../../../../pic32mx/lib\libpic32.a(sbrk.o) (errno)

Allocating common symbols
Common symbol       size              file

UDPRxCount          0x2               build/XC32-PIC32_ETH_SK_ETH795/production/_ext/1954962658/UDP.o
_PhyAdd             0x4               build/XC32-PIC32_ETH_SK_ETH795/production/_ext/1954962658/ETHPIC32ExtPhy.o
UDPTxCount          0x2               build/XC32-PIC32_ETH_SK_ETH795/production/_ext/1954962658/UDP.o
activeUDPSocket     0x1               build/XC32-PIC32_ETH_SK_ETH795/production/_ext/1954962658/UDP.o
UDPSocketInfo       0xe0              build/XC32-PIC32_ETH_SK_ETH795/production/_ext/1954962658/UDP.o
remoteNode          0xa               build/XC32-PIC32_ETH_SK_ETH795/production/_ext/1954962658/StackTsk.o
AppConfig           0x33              build/XC32-PIC32_ETH_SK_ETH795/production/_ext/1472/MainDemo.o

Microchip PIC32 Memory-Usage Report

kseg0 Program-Memory Usage
section                    address  length [bytes]      (dec)  Description
-------                 ----------  -------------------------  -----------
.text                   0x9d000000         0x5b6c       23404  App's exec code 
.rodata                 0x9d005b6c          0x7d4        2004  Read-only const 
.text                   0x9d006340         0x2044        8260  App's exec code 
.text.malloc            0x9d008384          0x278         632   
.text.EthRxBuffersAppen 0x9d0085fc          0x260         608   
.text._EthAckPacket     0x9d00885c          0x1f0         496   
.text                   0x9d008a4c          0x1c4         452  App's exec code 
.text.realloc           0x9d008c10          0x194         404   
.text._sbrk_init        0x9d008da4          0x190         400   
.text._EthRxAckBuffer   0x9d008f34          0x188         392   
.text                   0x9d0090bc          0x178         376  App's exec code 
.text.EthRxGetPacket    0x9d009234          0x170         368   
.dinit                  0x9d0093a4          0x170         368   
.text                   0x9d009514          0x2d0         720  App's exec code 
.text.EthTxSendPacket   0x9d0097e4          0x14c         332   
.text._EthAppendBusyLis 0x9d009930          0x140         320   
.text.EthDescriptorsPoo 0x9d009a70          0x12c         300   
.text.EthDescriptorsAdd 0x9d009b9c          0x124         292   
.text                   0x9d009cc0           0xf0         240  App's exec code 
.text.general_exception 0x9d009db0           0xdc         220   
.text._sbrk             0x9d009e8c           0xc4         196   
.text.EthTxSendBuffer   0x9d009f50           0xc0         192   
.text.EthInit           0x9d00a010           0xb4         180   
.text.EthMACOpen        0x9d00a0c4           0xb4         180   
.text._EthTxSchedBuffer 0x9d00a178           0xb4         180   
.text                   0x9d00a22c          0x140         320  App's exec code 
.text._EthTxSchedList   0x9d00a36c           0x88         136   
.text.EthMIIMConfig     0x9d00a3f4           0x7c         124   
.text.EthTxGetBufferSta 0x9d00a470           0x74         116   
.text.EthRxFiltersPMSet 0x9d00a4e4           0x6c         108   
.text.calloc            0x9d00a550           0x5c          92   
.text.INTEnable         0x9d00a5ac           0x58          88   
.text.strncpy           0x9d00a604           0x58          88   
.rodata                 0x9d00a65c           0x54          84  Read-only const 
.text.sbrk              0x9d00a6b0           0x50          80   
.text.main_entry        0x9d00a700           0x4c          76   
.text.EthMACSetAddress  0x9d00a74c           0x48          72   
.text._bootstrap_except 0x9d00a794           0x48          72   
.text                   0x9d00a7dc           0x44          68  App's exec code 
.text.EthMACGetAddress  0x9d00a820           0x44          68   
.text.EthMIIMReadStart  0x9d00a864           0x40          64   
.text.PORTSetPinsDigita 0x9d00a8a4           0x40          64   
.text.PORTSetPinsDigita 0x9d00a8e4           0x40          64   
.text.EthRxGetBuffer    0x9d00a924           0x3c          60   
.text.INTSetVectorPrior 0x9d00a960           0x3c          60   
.text.INTSetVectorSubPr 0x9d00a99c           0x3c          60   
.rodata                 0x9d00a9d8           0x38          56  Read-only const 
.text._EthFindPacket    0x9d00aa10           0x38          56   
.text.EthMIIMWriteStart 0x9d00aa48           0x38          56   
.vector_default         0x9d00aa80           0x38          56   
.text.EthMIIMScanStart  0x9d00aab8           0x34          52   
.text.INTEnableSystemMu 0x9d00aaec           0x34          52   
.text.EthTxAcknowledgeB 0x9d00ab20           0x30          48   
.text.EthTxAckBuffer    0x9d00ab50           0x30          48   
.text.EthRxSetBufferSiz 0x9d00ab80           0x30          48   
.text.INTGetVectorPrior 0x9d00abb0           0x30          48   
.text.INTGetVectorSubPr 0x9d00abe0           0x30          48   
.text.free              0x9d00ac10           0x30          48   
.text.INTClearFlag      0x9d00ac40           0x2c          44   
.text.INTSetFlag        0x9d00ac6c           0x2c          44   
.text.INTGetFlag        0x9d00ac98           0x2c          44   
.text.INTGetEnable      0x9d00acc4           0x2c          44   
.text._stub_sbd_memlayo 0x9d00acf0           0x2c          44   
.text.EthMIIMReadResult 0x9d00ad1c           0x28          40   
.text.EthMIIMScanResult 0x9d00ad44           0x20          32   
.text.EthRxAcknowledgeB 0x9d00ad64           0x1c          28   
.text.EthRxAckBuffer    0x9d00ad80           0x1c          28   
.text.INTRestoreInterru 0x9d00ad9c           0x1c          28   
.text.EthRxFiltersHTSet 0x9d00adb8           0x18          24   
.text.CheKseg0CacheOff  0x9d00add0           0x18          24   
.text.CheKseg0CacheOn   0x9d00ade8           0x18          24   
.text                   0x9d00ae00           0x18          24  App's exec code 
.rodata                 0x9d00ae18           0x14          20  Read-only const 
.text.EthMACSetMaxFrame 0x9d00ae2c           0x14          20   
.text.EthRxFiltersPMClr 0x9d00ae40           0x14          20   
.text.EthRxFiltersSet   0x9d00ae54           0x10          16   
.text.EthRxFiltersClr   0x9d00ae64           0x10          16   
.text.EthRxFiltersWrite 0x9d00ae74           0x10          16   
.rodata                 0x9d00ae84           0x18          24  Read-only const 
.text.ReadCoreTimer     0x9d00ae9c            0x8           8   
.text.INTDisableInterru 0x9d00aea4            0x8           8   
.text.INTEnableInterrup 0x9d00aeac            0x8           8   
.text._on_reset         0x9d00aeb4            0x8           8   
.text._on_bootstrap     0x9d00aebc            0x8           8   
.text.getpagesize       0x9d00aec4            0x8           8   
      Total kseg0_program_mem used  :      0xaecc       44748  8.5% of 0x80000

kseg0 Boot-Memory Usage
section                    address  length [bytes]      (dec)  Description
-------                 ----------  -------------------------  -----------
         Total kseg0_boot_mem used  :           0           0  <1% of 0x970

Exception-Memory Usage 
section                    address  length [bytes]      (dec)  Description
-------                 ----------  -------------------------  -----------
.app_excpt              0x9fc01180           0x10          16  General-Exception 
.vector_0               0x9fc01200            0x8           8  Interrupt Vector 0 
.vector_1               0x9fc01220            0x8           8  Interrupt Vector 1 
.vector_2               0x9fc01240            0x8           8  Interrupt Vector 2 
.vector_3               0x9fc01260            0x8           8  Interrupt Vector 3 
.vector_4               0x9fc01280            0x8           8  Interrupt Vector 4 
.vector_5               0x9fc012a0            0x8           8  Interrupt Vector 5 
.vector_6               0x9fc012c0            0x8           8  Interrupt Vector 6 
.vector_7               0x9fc012e0            0x8           8  Interrupt Vector 7 
.vector_8               0x9fc01300            0x8           8  Interrupt Vector 8 
.vector_9               0x9fc01320            0x8           8  Interrupt Vector 9 
.vector_10              0x9fc01340            0x8           8  Interrupt Vector 10 
.vector_11              0x9fc01360            0x8           8  Interrupt Vector 11 
.vector_12              0x9fc01380            0x8           8  Interrupt Vector 12 
.vector_13              0x9fc013a0            0x8           8  Interrupt Vector 13 
.vector_14              0x9fc013c0            0x8           8  Interrupt Vector 14 
.vector_15              0x9fc013e0            0x8           8  Interrupt Vector 15 
.vector_16              0x9fc01400            0x8           8  Interrupt Vector 16 
.vector_17              0x9fc01420            0x8           8  Interrupt Vector 17 
.vector_18              0x9fc01440            0x8           8  Interrupt Vector 18 
.vector_19              0x9fc01460            0x8           8  Interrupt Vector 19 
.vector_20              0x9fc01480            0x8           8  Interrupt Vector 20 
.vector_21              0x9fc014a0            0x8           8  Interrupt Vector 21 
.vector_22              0x9fc014c0            0x8           8  Interrupt Vector 22 
.vector_23              0x9fc014e0            0x8           8  Interrupt Vector 23 
.vector_24              0x9fc01500            0x8           8  Interrupt Vector 24 
.vector_25              0x9fc01520            0x8           8  Interrupt Vector 25 
.vector_26              0x9fc01540            0x8           8  Interrupt Vector 26 
.vector_27              0x9fc01560            0x8           8  Interrupt Vector 27 
.vector_28              0x9fc01580            0x8           8  Interrupt Vector 28 
.vector_29              0x9fc015a0            0x8           8  Interrupt Vector 29 
.vector_30              0x9fc015c0            0x8           8  Interrupt Vector 30 
.vector_31              0x9fc015e0            0x8           8  Interrupt Vector 31 
.vector_32              0x9fc01600            0x8           8  Interrupt Vector 32 
.vector_33              0x9fc01620            0x8           8  Interrupt Vector 33 
.vector_34              0x9fc01640            0x8           8  Interrupt Vector 34 
.vector_35              0x9fc01660            0x8           8  Interrupt Vector 35 
.vector_36              0x9fc01680            0x8           8  Interrupt Vector 36 
.vector_37              0x9fc016a0            0x8           8  Interrupt Vector 37 
.vector_38              0x9fc016c0            0x8           8  Interrupt Vector 38 
.vector_39              0x9fc016e0            0x8           8  Interrupt Vector 39 
.vector_40              0x9fc01700            0x8           8  Interrupt Vector 40 
.vector_41              0x9fc01720            0x8           8  Interrupt Vector 41 
.vector_42              0x9fc01740            0x8           8  Interrupt Vector 42 
.vector_43              0x9fc01760            0x8           8  Interrupt Vector 43 
.vector_44              0x9fc01780            0x8           8  Interrupt Vector 44 
.vector_45              0x9fc017a0            0x8           8  Interrupt Vector 45 
.vector_46              0x9fc017c0            0x8           8  Interrupt Vector 46 
.vector_47              0x9fc017e0            0x8           8  Interrupt Vector 47 
.vector_48              0x9fc01800            0x8           8  Interrupt Vector 48 
.vector_49              0x9fc01820            0x8           8  Interrupt Vector 49 
.vector_50              0x9fc01840            0x8           8  Interrupt Vector 50 
.vector_51              0x9fc01860            0x8           8  Interrupt Vector 51 
          Total exception_mem used  :       0x1b0         432  10.5% of 0x1000

kseg1 Boot-Memory Usage
section                    address  length [bytes]      (dec)  Description
-------                 ----------  -------------------------  -----------
.reset                  0xbfc00000          0x1f0         496  Reset handler 
.bev_excpt              0xbfc00380           0x10          16  BEV-Exception 
         Total kseg1_boot_mem used  :       0x200         512  43.8% of 0x490
        --------------------------------------------------------------------------
         Total Program Memory used  :      0xb27c       45692  8.6% of 0x81e00
        --------------------------------------------------------------------------


kseg1 Data-Memory Usage
section                    address  length [bytes]      (dec)  Description
-------                 ----------  -------------------------  -----------
.eh_frame               0xa0000000           0x30          48   
.sdata                  0xa0000030            0x8           8  Small init data 
.sbss                   0xa0000038           0xc0         192  Small uninit data 
.bss                    0xa00000f8          0x120         288  Uninitialized data 
.bss                    0xa0000218         0x3c50       15440  Uninitialized data 
         Total kseg1_data_mem used  :      0x3e68       15976  12.2% of 0x20000
        --------------------------------------------------------------------------
            Total Data Memory used  :      0x3e68       15976  12.2% of 0x20000
        --------------------------------------------------------------------------


Dynamic Data-Memory Reservation
section                    address  length [bytes]      (dec)  Description
-------                 ----------  -------------------------  -----------
heap                    0xa0003e70         0x3e80       16000  Reserved for heap 
stack                   0xa0007d08        0x182e8       99048  Reserved for stack 

        --------------------------------------------------------------------------

Discarded input sections

 .reginfo       0x00000000       0x18 c:/program files (x86)/microchip/xc32/v1.34/bin/bin/../../lib/gcc/pic32mx/4.5.2/../../../../pic32mx/lib\debug-exception-return.o
 .reginfo       0x00000000       0x18 build/XC32-PIC32_ETH_SK_ETH795/production/_ext/1954962658/ARCFOUR.o
 .reginfo       0x00000000       0x18 build/XC32-PIC32_ETH_SK_ETH795/production/_ext/1954962658/ARP.o
 .reginfo       0x00000000       0x18 build/XC32-PIC32_ETH_SK_ETH795/production/_ext/1954962658/Announce.o
 .reginfo       0x00000000       0x18 build/XC32-PIC32_ETH_SK_ETH795/production/_ext/1954962658/AutoIP.o
 .reginfo       0x00000000       0x18 build/XC32-PIC32_ETH_SK_ETH795/production/_ext/1954962658/BerkeleyAPI.o
 .reginfo       0x00000000       0x18 build/XC32-PIC32_ETH_SK_ETH795/production/_ext/1954962658/BigInt.o
 .reginfo       0x00000000       0x18 build/XC32-PIC32_ETH_SK_ETH795/production/_ext/1954962658/BigInt_helper_PIC32.o
 .reginfo       0x00000000       0x18 build/XC32-PIC32_ETH_SK_ETH795/production/_ext/1954962658/DHCP.o
 .reginfo       0x00000000       0x18 build/XC32-PIC32_ETH_SK_ETH795/production/_ext/1954962658/DHCPs.o
 .reginfo       0x00000000       0x18 build/XC32-PIC32_ETH_SK_ETH795/production/_ext/1954962658/DNS.o
 .reginfo       0x00000000       0x18 build/XC32-PIC32_ETH_SK_ETH795/production/_ext/1954962658/DNSs.o
 .reginfo       0x00000000       0x18 build/XC32-PIC32_ETH_SK_ETH795/production/_ext/1954962658/Delay.o
 .reginfo       0x00000000       0x18 build/XC32-PIC32_ETH_SK_ETH795/production/_ext/1954962658/DynDNS.o
 .reginfo       0x00000000       0x18 build/XC32-PIC32_ETH_SK_ETH795/production/_ext/1954962658/ENC28J60.o
 .reginfo       0x00000000       0x18 build/XC32-PIC32_ETH_SK_ETH795/production/_ext/1954962658/ENCX24J600.o
 .reginfo       0x00000000       0x18 build/XC32-PIC32_ETH_SK_ETH795/production/_ext/1954962658/ETHPIC32ExtPhy.o
 .reginfo       0x00000000       0x18 build/XC32-PIC32_ETH_SK_ETH795/production/_ext/1954962658/ETHPIC32ExtPhyDP83848.o
 .reginfo       0x00000000       0x18 build/XC32-PIC32_ETH_SK_ETH795/production/_ext/1954962658/ETHPIC32IntMac.o
 .reginfo       0x00000000       0x18 build/XC32-PIC32_ETH_SK_ETH795/production/_ext/1954962658/FTP.o
 .reginfo       0x00000000       0x18 build/XC32-PIC32_ETH_SK_ETH795/production/_ext/1954962658/FileSystem.o
 .reginfo       0x00000000       0x18 build/XC32-PIC32_ETH_SK_ETH795/production/_ext/1954962658/HTTP2.o
 .reginfo       0x00000000       0x18 build/XC32-PIC32_ETH_SK_ETH795/production/_ext/1954962658/Hashes.o
 .reginfo       0x00000000       0x18 build/XC32-PIC32_ETH_SK_ETH795/production/_ext/1954962658/Helpers.o
 .reginfo       0x00000000       0x18 build/XC32-PIC32_ETH_SK_ETH795/production/_ext/1954962658/ICMP.o
 .reginfo       0x00000000       0x18 build/XC32-PIC32_ETH_SK_ETH795/production/_ext/1954962658/IP.o
 .reginfo       0x00000000       0x18 build/XC32-PIC32_ETH_SK_ETH795/production/_ext/1954962658/LCDBlocking.o
 .reginfo       0x00000000       0x18 build/XC32-PIC32_ETH_SK_ETH795/production/_ext/1954962658/MPFS2.o
 .reginfo       0x00000000       0x18 build/XC32-PIC32_ETH_SK_ETH795/production/_ext/1954962658/NBNS.o
 .reginfo       0x00000000       0x18 build/XC32-PIC32_ETH_SK_ETH795/production/_ext/1954962658/RSA.o
 .reginfo       0x00000000       0x18 build/XC32-PIC32_ETH_SK_ETH795/production/_ext/1954962658/Random.o
 .reginfo       0x00000000       0x18 build/XC32-PIC32_ETH_SK_ETH795/production/_ext/1954962658/Reboot.o
 .reginfo       0x00000000       0x18 build/XC32-PIC32_ETH_SK_ETH795/production/_ext/1954962658/SMTP.o
 .reginfo       0x00000000       0x18 build/XC32-PIC32_ETH_SK_ETH795/production/_ext/1954962658/SNMP.o
 .reginfo       0x00000000       0x18 build/XC32-PIC32_ETH_SK_ETH795/production/_ext/1954962658/SNMPv3.o
 .reginfo       0x00000000       0x18 build/XC32-PIC32_ETH_SK_ETH795/production/_ext/1954962658/SNMPv3USM.o
 .reginfo       0x00000000       0x18 build/XC32-PIC32_ETH_SK_ETH795/production/_ext/1954962658/SNTP.o
 .reginfo       0x00000000       0x18 build/XC32-PIC32_ETH_SK_ETH795/production/_ext/1954962658/SPIEEPROM.o
 .reginfo       0x00000000       0x18 build/XC32-PIC32_ETH_SK_ETH795/production/_ext/1954962658/SPIFlash.o
 .reginfo       0x00000000       0x18 build/XC32-PIC32_ETH_SK_ETH795/production/_ext/1954962658/SPIRAM.o
 .reginfo       0x00000000       0x18 build/XC32-PIC32_ETH_SK_ETH795/production/_ext/1954962658/SSL.o
 .reginfo       0x00000000       0x18 build/XC32-PIC32_ETH_SK_ETH795/production/_ext/1954962658/StackTsk.o
 .reginfo       0x00000000       0x18 build/XC32-PIC32_ETH_SK_ETH795/production/_ext/1954962658/TCP.o
 .reginfo       0x00000000       0x18 build/XC32-PIC32_ETH_SK_ETH795/production/_ext/1954962658/TCPPerformanceTest.o
 .reginfo       0x00000000       0x18 build/XC32-PIC32_ETH_SK_ETH795/production/_ext/1954962658/TFTPc.o
 .reginfo       0x00000000       0x18 build/XC32-PIC32_ETH_SK_ETH795/production/_ext/1954962658/Telnet.o
 .reginfo       0x00000000       0x18 build/XC32-PIC32_ETH_SK_ETH795/production/_ext/1954962658/Tick.o
 .reginfo       0x00000000       0x18 build/XC32-PIC32_ETH_SK_ETH795/production/_ext/1954962658/UART.o
 .reginfo       0x00000000       0x18 build/XC32-PIC32_ETH_SK_ETH795/production/_ext/1954962658/UART2TCPBridge.o
 .reginfo       0x00000000       0x18 build/XC32-PIC32_ETH_SK_ETH795/production/_ext/1954962658/UDP.o
 .reginfo       0x00000000       0x18 build/XC32-PIC32_ETH_SK_ETH795/production/_ext/1954962658/UDPPerformanceTest.o
 .reginfo       0x00000000       0x18 build/XC32-PIC32_ETH_SK_ETH795/production/_ext/1954962658/ZeroconfHelper.o
 .reginfo       0x00000000       0x18 build/XC32-PIC32_ETH_SK_ETH795/production/_ext/1954962658/ZeroconfLinkLocal.o
 .reginfo       0x00000000       0x18 build/XC32-PIC32_ETH_SK_ETH795/production/_ext/1954962658/ZeroconfMulticastDNS.o
 .reginfo       0x00000000       0x18 build/XC32-PIC32_ETH_SK_ETH795/production/_ext/1472/MainDemo.o
 .reginfo       0x00000000       0x18 c:/program files (x86)/microchip/xc32/v1.34/bin/bin/../../lib/gcc/pic32mx/4.5.2/../../../../pic32mx/lib/./proc/32MX795F512L\default_isr_vectors.o
 .discard       0x00000000       0xd0 c:/program files (x86)/microchip/xc32/v1.34/bin/bin/../../lib/gcc/pic32mx/4.5.2/../../../../pic32mx/lib/./proc/32MX795F512L\default_isr_vectors.o
 .reginfo       0x00000000       0x18 c:/program files (x86)/microchip/xc32/v1.34/bin/bin/../../lib/gcc/pic32mx/4.5.2/../../../../pic32mx/lib\pic32_software_reset.o
 .reginfo       0x00000000       0x18 c:/program files (x86)/microchip/xc32/v1.34/bin/bin/../../lib/gcc/pic32mx/4.5.2/../../../../pic32mx/lib/./proc/32MX795F512L\processor.o
 .reginfo       0x00000000       0x18 c:/program files (x86)/microchip/xc32/v1.34/bin/bin/../../lib/gcc/pic32mx/4.5.2/../../../../pic32mx/lib\libmchp_peripheral.a(read_core_timer_lib.o)
 .reginfo       0x00000000       0x18 c:/program files (x86)/microchip/xc32/v1.34/bin/bin/../../lib/gcc/pic32mx/4.5.2/../../../../pic32mx/lib\libmchp_peripheral_32MX795F512L.a(eth_ack_packet_lib.o)
 .reginfo       0x00000000       0x18 c:/program files (x86)/microchip/xc32/v1.34/bin/bin/../../lib/gcc/pic32mx/4.5.2/../../../../pic32mx/lib\libmchp_peripheral_32MX795F512L.a(eth_descriptors_add_lib.o)
 .reginfo       0x00000000       0x18 c:/program files (x86)/microchip/xc32/v1.34/bin/bin/../../lib/gcc/pic32mx/4.5.2/../../../../pic32mx/lib\libmchp_peripheral_32MX795F512L.a(eth_init_lib.o)
 .reginfo       0x00000000       0x18 c:/program files (x86)/microchip/xc32/v1.34/bin/bin/../../lib/gcc/pic32mx/4.5.2/../../../../pic32mx/lib\libmchp_peripheral_32MX795F512L.a(eth_mac_open_lib.o)
 .reginfo       0x00000000       0x18 c:/program files (x86)/microchip/xc32/v1.34/bin/bin/../../lib/gcc/pic32mx/4.5.2/../../../../pic32mx/lib\libmchp_peripheral_32MX795F512L.a(eth_mac_set_address_max_lib.o)
 .reginfo       0x00000000       0x18 c:/program files (x86)/microchip/xc32/v1.34/bin/bin/../../lib/gcc/pic32mx/4.5.2/../../../../pic32mx/lib\libmchp_peripheral_32MX795F512L.a(eth_rx_buffers_append_lib.o)
 .reginfo       0x00000000       0x18 c:/program files (x86)/microchip/xc32/v1.34/bin/bin/../../lib/gcc/pic32mx/4.5.2/../../../../pic32mx/lib\libmchp_peripheral_32MX795F512L.a(eth_rx_filters_lib.o)
 .reginfo       0x00000000       0x18 c:/program files (x86)/microchip/xc32/v1.34/bin/bin/../../lib/gcc/pic32mx/4.5.2/../../../../pic32mx/lib\libmchp_peripheral_32MX795F512L.a(eth_rx_get_packet_lib.o)
 .reginfo       0x00000000       0x18 c:/program files (x86)/microchip/xc32/v1.34/bin/bin/../../lib/gcc/pic32mx/4.5.2/../../../../pic32mx/lib\libmchp_peripheral_32MX795F512L.a(eth_rx_set_buffer_size_lib.o)
 .reginfo       0x00000000       0x18 c:/program files (x86)/microchip/xc32/v1.34/bin/bin/../../lib/gcc/pic32mx/4.5.2/../../../../pic32mx/lib\libmchp_peripheral_32MX795F512L.a(eth_tx_packet_lib.o)
 .reginfo       0x00000000       0x18 c:/program files (x86)/microchip/xc32/v1.34/bin/bin/../../lib/gcc/pic32mx/4.5.2/../../../../pic32mx/lib\libmchp_peripheral_32MX795F512L.a(_eth_append_busy_list_lib.o)
 .reginfo       0x00000000       0x18 c:/program files (x86)/microchip/xc32/v1.34/bin/bin/../../lib/gcc/pic32mx/4.5.2/../../../../pic32mx/lib\libmchp_peripheral_32MX795F512L.a(eth_miim_access.o)
 .reginfo       0x00000000       0x18 c:/program files (x86)/microchip/xc32/v1.34/bin/bin/../../lib/gcc/pic32mx/4.5.2/../../../../pic32mx/lib\libmchp_peripheral_32MX795F512L.a(pcache.o)
 .reginfo       0x00000000       0x18 c:/program files (x86)/microchip/xc32/v1.34/bin/bin/../../lib/gcc/pic32mx/4.5.2/../../../../pic32mx/lib\libmchp_peripheral_32MX795F512L.a(int_disable_interrupts_lib.o)
 .reginfo       0x00000000       0x18 c:/program files (x86)/microchip/xc32/v1.34/bin/bin/../../lib/gcc/pic32mx/4.5.2/../../../../pic32mx/lib\libmchp_peripheral_32MX795F512L.a(int_restore_interrupts_lib.o)
 .reginfo       0x00000000       0x18 c:/program files (x86)/microchip/xc32/v1.34/bin/bin/../../lib/gcc/pic32mx/4.5.2/../../../../pic32mx/lib\libmchp_peripheral_32MX795F512L.a(int_enable_mv_int_lib.o)
 .reginfo       0x00000000       0x18 c:/program files (x86)/microchip/xc32/v1.34/bin/bin/../../lib/gcc/pic32mx/4.5.2/../../../../pic32mx/lib\libmchp_peripheral_32MX795F512L.a(int_tbl_lib.o)
 .reginfo       0x00000000       0x18 c:/program files (x86)/microchip/xc32/v1.34/bin/bin/../../lib/gcc/pic32mx/4.5.2/../../../../pic32mx/lib\libmchp_peripheral_32MX795F512L.a(port_set_pins_digital_in_lib.o)
 .reginfo       0x00000000       0x18 c:/program files (x86)/microchip/xc32/v1.34/bin/bin/../../lib/gcc/pic32mx/4.5.2/../../../../pic32mx/lib\libmchp_peripheral_32MX795F512L.a(port_set_pins_digital_out_lib.o)
 .reginfo       0x00000000       0x18 c:/program files (x86)/microchip/xc32/v1.34/bin/bin/../../lib/gcc/pic32mx/4.5.2/../../../../pic32mx/lib\libmchp_peripheral_32MX795F512L.a(_ports_tbl_libp.o)
 .reginfo       0x00000000       0x18 c:/program files (x86)/microchip/xc32/v1.34/bin/bin/../../lib/gcc/pic32mx/4.5.2/../../../../pic32mx/lib\libmchp_peripheral_32MX795F512L.a(int_enable_interrupts_lib.o)
 .reginfo       0x00000000       0x18 c:/program files (x86)/microchip/xc32/v1.34/bin/bin/../../lib/gcc/pic32mx/4.5.2\libgcc.a(_udivdi3.o)
 .reginfo       0x00000000       0x18 c:/program files (x86)/microchip/xc32/v1.34/bin/bin/../../lib/gcc/pic32mx/4.5.2\libgcc.a(_umoddi3.o)
 .reginfo       0x00000000       0x18 c:/program files (x86)/microchip/xc32/v1.34/bin/bin/../../lib/gcc/pic32mx/4.5.2/../../../../pic32mx/lib\libpic32.a(memcmp.o)
 .reginfo       0x00000000       0x18 c:/program files (x86)/microchip/xc32/v1.34/bin/bin/../../lib/gcc/pic32mx/4.5.2/../../../../pic32mx/lib\libpic32.a(memcpy.o)
 .reginfo       0x00000000       0x18 c:/program files (x86)/microchip/xc32/v1.34/bin/bin/../../lib/gcc/pic32mx/4.5.2/../../../../pic32mx/lib\libpic32.a(memset.o)
 .reginfo       0x00000000       0x18 c:/program files (x86)/microchip/xc32/v1.34/bin/bin/../../lib/gcc/pic32mx/4.5.2/../../../../pic32mx/lib\libpic32.a(strlen.o)
 .reginfo       0x00000000       0x18 c:/program files (x86)/microchip/xc32/v1.34/bin/bin/../../lib/gcc/pic32mx/4.5.2/../../../../pic32mx/lib\libpic32.a(default-bootstrap-exception-handler.o)
 .reginfo       0x00000000       0x18 c:/program files (x86)/microchip/xc32/v1.34/bin/bin/../../lib/gcc/pic32mx/4.5.2/../../../../pic32mx/lib\libpic32.a(default-on-reset.o)
 .reginfo       0x00000000       0x18 c:/program files (x86)/microchip/xc32/v1.34/bin/bin/../../lib/gcc/pic32mx/4.5.2/../../../../pic32mx/lib\libpic32.a(default-on-bootstrap.o)
 .reginfo       0x00000000       0x18 c:/program files (x86)/microchip/xc32/v1.34/bin/bin/../../lib/gcc/pic32mx/4.5.2/../../../../pic32mx/lib\libpic32.a(default-nmi-handler.o)
 .reginfo       0x00000000       0x18 c:/program files (x86)/microchip/xc32/v1.34/bin/bin/../../lib/gcc/pic32mx/4.5.2/../../../../pic32mx/lib\libpic32.a(general-exception.o)
 .reginfo       0x00000000       0x18 c:/program files (x86)/microchip/xc32/v1.34/bin/bin/../../lib/gcc/pic32mx/4.5.2/../../../../pic32mx/lib\libpic32.a(vector0.o)
 .reginfo       0x00000000       0x18 c:/program files (x86)/microchip/xc32/v1.34/bin/bin/../../lib/gcc/pic32mx/4.5.2/../../../../pic32mx/lib\libpic32.a(vector1.o)
 .reginfo       0x00000000       0x18 c:/program files (x86)/microchip/xc32/v1.34/bin/bin/../../lib/gcc/pic32mx/4.5.2/../../../../pic32mx/lib\libpic32.a(vector2.o)
 .reginfo       0x00000000       0x18 c:/program files (x86)/microchip/xc32/v1.34/bin/bin/../../lib/gcc/pic32mx/4.5.2/../../../../pic32mx/lib\libpic32.a(vector3.o)
 .reginfo       0x00000000       0x18 c:/program files (x86)/microchip/xc32/v1.34/bin/bin/../../lib/gcc/pic32mx/4.5.2/../../../../pic32mx/lib\libpic32.a(vector5.o)
 .reginfo       0x00000000       0x18 c:/program files (x86)/microchip/xc32/v1.34/bin/bin/../../lib/gcc/pic32mx/4.5.2/../../../../pic32mx/lib\libpic32.a(vector6.o)
 .reginfo       0x00000000       0x18 c:/program files (x86)/microchip/xc32/v1.34/bin/bin/../../lib/gcc/pic32mx/4.5.2/../../../../pic32mx/lib\libpic32.a(vector7.o)
 .reginfo       0x00000000       0x18 c:/program files (x86)/microchip/xc32/v1.34/bin/bin/../../lib/gcc/pic32mx/4.5.2/../../../../pic32mx/lib\libpic32.a(vector8.o)
 .reginfo       0x00000000       0x18 c:/program files (x86)/microchip/xc32/v1.34/bin/bin/../../lib/gcc/pic32mx/4.5.2/../../../../pic32mx/lib\libpic32.a(vector9.o)
 .reginfo       0x00000000       0x18 c:/program files (x86)/microchip/xc32/v1.34/bin/bin/../../lib/gcc/pic32mx/4.5.2/../../../../pic32mx/lib\libpic32.a(vector10.o)
 .reginfo       0x00000000       0x18 c:/program files (x86)/microchip/xc32/v1.34/bin/bin/../../lib/gcc/pic32mx/4.5.2/../../../../pic32mx/lib\libpic32.a(vector11.o)
 .reginfo       0x00000000       0x18 c:/program files (x86)/microchip/xc32/v1.34/bin/bin/../../lib/gcc/pic32mx/4.5.2/../../../../pic32mx/lib\libpic32.a(vector12.o)
 .reginfo       0x00000000       0x18 c:/program files (x86)/microchip/xc32/v1.34/bin/bin/../../lib/gcc/pic32mx/4.5.2/../../../../pic32mx/lib\libpic32.a(vector13.o)
 .reginfo       0x00000000       0x18 c:/program files (x86)/microchip/xc32/v1.34/bin/bin/../../lib/gcc/pic32mx/4.5.2/../../../../pic32mx/lib\libpic32.a(vector14.o)
 .reginfo       0x00000000       0x18 c:/program files (x86)/microchip/xc32/v1.34/bin/bin/../../lib/gcc/pic32mx/4.5.2/../../../../pic32mx/lib\libpic32.a(vector15.o)
 .reginfo       0x00000000       0x18 c:/program files (x86)/microchip/xc32/v1.34/bin/bin/../../lib/gcc/pic32mx/4.5.2/../../../../pic32mx/lib\libpic32.a(vector16.o)
 .reginfo       0x00000000       0x18 c:/program files (x86)/microchip/xc32/v1.34/bin/bin/../../lib/gcc/pic32mx/4.5.2/../../../../pic32mx/lib\libpic32.a(vector17.o)
 .reginfo       0x00000000       0x18 c:/program files (x86)/microchip/xc32/v1.34/bin/bin/../../lib/gcc/pic32mx/4.5.2/../../../../pic32mx/lib\libpic32.a(vector18.o)
 .reginfo       0x00000000       0x18 c:/program files (x86)/microchip/xc32/v1.34/bin/bin/../../lib/gcc/pic32mx/4.5.2/../../../../pic32mx/lib\libpic32.a(vector19.o)
 .reginfo       0x00000000       0x18 c:/program files (x86)/microchip/xc32/v1.34/bin/bin/../../lib/gcc/pic32mx/4.5.2/../../../../pic32mx/lib\libpic32.a(vector20.o)
 .reginfo       0x00000000       0x18 c:/program files (x86)/microchip/xc32/v1.34/bin/bin/../../lib/gcc/pic32mx/4.5.2/../../../../pic32mx/lib\libpic32.a(vector21.o)
 .reginfo       0x00000000       0x18 c:/program files (x86)/microchip/xc32/v1.34/bin/bin/../../lib/gcc/pic32mx/4.5.2/../../../../pic32mx/lib\libpic32.a(vector22.o)
 .reginfo       0x00000000       0x18 c:/program files (x86)/microchip/xc32/v1.34/bin/bin/../../lib/gcc/pic32mx/4.5.2/../../../../pic32mx/lib\libpic32.a(vector23.o)
 .reginfo       0x00000000       0x18 c:/program files (x86)/microchip/xc32/v1.34/bin/bin/../../lib/gcc/pic32mx/4.5.2/../../../../pic32mx/lib\libpic32.a(vector24.o)
 .reginfo       0x00000000       0x18 c:/program files (x86)/microchip/xc32/v1.34/bin/bin/../../lib/gcc/pic32mx/4.5.2/../../../../pic32mx/lib\libpic32.a(vector25.o)
 .reginfo       0x00000000       0x18 c:/program files (x86)/microchip/xc32/v1.34/bin/bin/../../lib/gcc/pic32mx/4.5.2/../../../../pic32mx/lib\libpic32.a(vector26.o)
 .reginfo       0x00000000       0x18 c:/program files (x86)/microchip/xc32/v1.34/bin/bin/../../lib/gcc/pic32mx/4.5.2/../../../../pic32mx/lib\libpic32.a(vector27.o)
 .reginfo       0x00000000       0x18 c:/program files (x86)/microchip/xc32/v1.34/bin/bin/../../lib/gcc/pic32mx/4.5.2/../../../../pic32mx/lib\libpic32.a(vector28.o)
 .reginfo       0x00000000       0x18 c:/program files (x86)/microchip/xc32/v1.34/bin/bin/../../lib/gcc/pic32mx/4.5.2/../../../../pic32mx/lib\libpic32.a(vector29.o)
 .reginfo       0x00000000       0x18 c:/program files (x86)/microchip/xc32/v1.34/bin/bin/../../lib/gcc/pic32mx/4.5.2/../../../../pic32mx/lib\libpic32.a(vector30.o)
 .reginfo       0x00000000       0x18 c:/program files (x86)/microchip/xc32/v1.34/bin/bin/../../lib/gcc/pic32mx/4.5.2/../../../../pic32mx/lib\libpic32.a(vector31.o)
 .reginfo       0x00000000       0x18 c:/program files (x86)/microchip/xc32/v1.34/bin/bin/../../lib/gcc/pic32mx/4.5.2/../../../../pic32mx/lib\libpic32.a(vector32.o)
 .reginfo       0x00000000       0x18 c:/program files (x86)/microchip/xc32/v1.34/bin/bin/../../lib/gcc/pic32mx/4.5.2/../../../../pic32mx/lib\libpic32.a(vector33.o)
 .reginfo       0x00000000       0x18 c:/program files (x86)/microchip/xc32/v1.34/bin/bin/../../lib/gcc/pic32mx/4.5.2/../../../../pic32mx/lib\libpic32.a(vector34.o)
 .reginfo       0x00000000       0x18 c:/program files (x86)/microchip/xc32/v1.34/bin/bin/../../lib/gcc/pic32mx/4.5.2/../../../../pic32mx/lib\libpic32.a(vector35.o)
 .reginfo       0x00000000       0x18 c:/program files (x86)/microchip/xc32/v1.34/bin/bin/../../lib/gcc/pic32mx/4.5.2/../../../../pic32mx/lib\libpic32.a(vector36.o)
 .reginfo       0x00000000       0x18 c:/program files (x86)/microchip/xc32/v1.34/bin/bin/../../lib/gcc/pic32mx/4.5.2/../../../../pic32mx/lib\libpic32.a(vector37.o)
 .reginfo       0x00000000       0x18 c:/program files (x86)/microchip/xc32/v1.34/bin/bin/../../lib/gcc/pic32mx/4.5.2/../../../../pic32mx/lib\libpic32.a(vector38.o)
 .reginfo       0x00000000       0x18 c:/program files (x86)/microchip/xc32/v1.34/bin/bin/../../lib/gcc/pic32mx/4.5.2/../../../../pic32mx/lib\libpic32.a(vector39.o)
 .reginfo       0x00000000       0x18 c:/program files (x86)/microchip/xc32/v1.34/bin/bin/../../lib/gcc/pic32mx/4.5.2/../../../../pic32mx/lib\libpic32.a(vector40.o)
 .reginfo       0x00000000       0x18 c:/program files (x86)/microchip/xc32/v1.34/bin/bin/../../lib/gcc/pic32mx/4.5.2/../../../../pic32mx/lib\libpic32.a(vector41.o)
 .reginfo       0x00000000       0x18 c:/program files (x86)/microchip/xc32/v1.34/bin/bin/../../lib/gcc/pic32mx/4.5.2/../../../../pic32mx/lib\libpic32.a(vector42.o)
 .reginfo       0x00000000       0x18 c:/program files (x86)/microchip/xc32/v1.34/bin/bin/../../lib/gcc/pic32mx/4.5.2/../../../../pic32mx/lib\libpic32.a(vector43.o)
 .reginfo       0x00000000       0x18 c:/program files (x86)/microchip/xc32/v1.34/bin/bin/../../lib/gcc/pic32mx/4.5.2/../../../../pic32mx/lib\libpic32.a(vector44.o)
 .reginfo       0x00000000       0x18 c:/program files (x86)/microchip/xc32/v1.34/bin/bin/../../lib/gcc/pic32mx/4.5.2/../../../../pic32mx/lib\libpic32.a(vector45.o)
 .reginfo       0x00000000       0x18 c:/program files (x86)/microchip/xc32/v1.34/bin/bin/../../lib/gcc/pic32mx/4.5.2/../../../../pic32mx/lib\libpic32.a(vector46.o)
 .reginfo       0x00000000       0x18 c:/program files (x86)/microchip/xc32/v1.34/bin/bin/../../lib/gcc/pic32mx/4.5.2/../../../../pic32mx/lib\libpic32.a(vector47.o)
 .reginfo       0x00000000       0x18 c:/program files (x86)/microchip/xc32/v1.34/bin/bin/../../lib/gcc/pic32mx/4.5.2/../../../../pic32mx/lib\libpic32.a(vector48.o)
 .reginfo       0x00000000       0x18 c:/program files (x86)/microchip/xc32/v1.34/bin/bin/../../lib/gcc/pic32mx/4.5.2/../../../../pic32mx/lib\libpic32.a(vector49.o)
 .reginfo       0x00000000       0x18 c:/program files (x86)/microchip/xc32/v1.34/bin/bin/../../lib/gcc/pic32mx/4.5.2/../../../../pic32mx/lib\libpic32.a(vector50.o)
 .reginfo       0x00000000       0x18 c:/program files (x86)/microchip/xc32/v1.34/bin/bin/../../lib/gcc/pic32mx/4.5.2/../../../../pic32mx/lib\libpic32.a(vector51.o)
 .reginfo       0x00000000       0x18 c:/program files (x86)/microchip/xc32/v1.34/bin/bin/../../lib/gcc/pic32mx/4.5.2/../../../../pic32mx/lib\libpic32.a(defaultinterrupt.o)
 .reginfo       0x00000000       0x18 c:/program files (x86)/microchip/xc32/v1.34/bin/bin/../../lib/gcc/pic32mx/4.5.2/../../../../pic32mx/lib\libc.a(calloc.o)
 .reginfo       0x00000000       0x18 c:/program files (x86)/microchip/xc32/v1.34/bin/bin/../../lib/gcc/pic32mx/4.5.2/../../../../pic32mx/lib\libc.a(malloc.o)
 .reginfo       0x00000000       0x18 c:/program files (x86)/microchip/xc32/v1.34/bin/bin/../../lib/gcc/pic32mx/4.5.2/../../../../pic32mx/lib\libc.a(strncpy.o)
 .reginfo       0x00000000       0x18 c:/program files (x86)/microchip/xc32/v1.34/bin/bin/../../lib/gcc/pic32mx/4.5.2/../../../../pic32mx/lib\libpic32.a(sbrk.o)
 .reginfo       0x00000000       0x18 c:/program files (x86)/microchip/xc32/v1.34/bin/bin/../../lib/gcc/pic32mx/4.5.2/../../../../pic32mx/lib\libpic32.a(errno.o)

Memory Configuration

Name             Origin             Length             Attributes
kseg0_program_mem 0x9d000000         0x00080000         xr
kseg0_boot_mem   0x9fc00490         0x00000970
exception_mem    0x9fc01000         0x00001000
kseg1_boot_mem   0xbfc00000         0x00000490
debug_exec_mem   0xbfc02000         0x00000ff0
config3          0xbfc02ff0         0x00000004
config2          0xbfc02ff4         0x00000004
config1          0xbfc02ff8         0x00000004
config0          0xbfc02ffc         0x00000004
kseg1_data_mem   0xa0000000         0x00020000         w !x
sfrs             0xbf800000         0x00100000
configsfrs       0xbfc02ff0         0x00000010
*default*        0x00000000         0xffffffff

Linker script and memory map

LOAD c:/program files (x86)/microchip/xc32/v1.34/bin/bin/../../lib/gcc/pic32mx/4.5.2/../../../../pic32mx/lib/./proc/32MX795F512L/crt0_mips32r2.o
LOAD c:/program files (x86)/microchip/xc32/v1.34/bin/bin/../../lib/gcc/pic32mx/4.5.2/../../../../pic32mx/lib\debug-exception-return.o
LOAD build/XC32-PIC32_ETH_SK_ETH795/production/_ext/1954962658/ARCFOUR.o
LOAD build/XC32-PIC32_ETH_SK_ETH795/production/_ext/1954962658/ARP.o
LOAD build/XC32-PIC32_ETH_SK_ETH795/production/_ext/1954962658/Announce.o
LOAD build/XC32-PIC32_ETH_SK_ETH795/production/_ext/1954962658/AutoIP.o
LOAD build/XC32-PIC32_ETH_SK_ETH795/production/_ext/1954962658/BerkeleyAPI.o
LOAD build/XC32-PIC32_ETH_SK_ETH795/production/_ext/1954962658/BigInt.o
LOAD build/XC32-PIC32_ETH_SK_ETH795/production/_ext/1954962658/BigInt_helper_PIC32.o
LOAD build/XC32-PIC32_ETH_SK_ETH795/production/_ext/1954962658/DHCP.o
LOAD build/XC32-PIC32_ETH_SK_ETH795/production/_ext/1954962658/DHCPs.o
LOAD build/XC32-PIC32_ETH_SK_ETH795/production/_ext/1954962658/DNS.o
LOAD build/XC32-PIC32_ETH_SK_ETH795/production/_ext/1954962658/DNSs.o
LOAD build/XC32-PIC32_ETH_SK_ETH795/production/_ext/1954962658/Delay.o
LOAD build/XC32-PIC32_ETH_SK_ETH795/production/_ext/1954962658/DynDNS.o
LOAD build/XC32-PIC32_ETH_SK_ETH795/production/_ext/1954962658/ENC28J60.o
LOAD build/XC32-PIC32_ETH_SK_ETH795/production/_ext/1954962658/ENCX24J600.o
LOAD build/XC32-PIC32_ETH_SK_ETH795/production/_ext/1954962658/ETHPIC32ExtPhy.o
LOAD build/XC32-PIC32_ETH_SK_ETH795/production/_ext/1954962658/ETHPIC32ExtPhyDP83848.o
LOAD build/XC32-PIC32_ETH_SK_ETH795/production/_ext/1954962658/ETHPIC32IntMac.o
LOAD build/XC32-PIC32_ETH_SK_ETH795/production/_ext/1954962658/FTP.o
LOAD build/XC32-PIC32_ETH_SK_ETH795/production/_ext/1954962658/FileSystem.o
LOAD build/XC32-PIC32_ETH_SK_ETH795/production/_ext/1954962658/HTTP2.o
LOAD build/XC32-PIC32_ETH_SK_ETH795/production/_ext/1954962658/Hashes.o
LOAD build/XC32-PIC32_ETH_SK_ETH795/production/_ext/1954962658/Helpers.o
LOAD build/XC32-PIC32_ETH_SK_ETH795/production/_ext/1954962658/ICMP.o
LOAD build/XC32-PIC32_ETH_SK_ETH795/production/_ext/1954962658/IP.o
LOAD build/XC32-PIC32_ETH_SK_ETH795/production/_ext/1954962658/LCDBlocking.o
LOAD build/XC32-PIC32_ETH_SK_ETH795/production/_ext/1954962658/MPFS2.o
LOAD build/XC32-PIC32_ETH_SK_ETH795/production/_ext/1954962658/NBNS.o
LOAD build/XC32-PIC32_ETH_SK_ETH795/production/_ext/1954962658/RSA.o
LOAD build/XC32-PIC32_ETH_SK_ETH795/production/_ext/1954962658/Random.o
LOAD build/XC32-PIC32_ETH_SK_ETH795/production/_ext/1954962658/Reboot.o
LOAD build/XC32-PIC32_ETH_SK_ETH795/production/_ext/1954962658/SMTP.o
LOAD build/XC32-PIC32_ETH_SK_ETH795/production/_ext/1954962658/SNMP.o
LOAD build/XC32-PIC32_ETH_SK_ETH795/production/_ext/1954962658/SNMPv3.o
LOAD build/XC32-PIC32_ETH_SK_ETH795/production/_ext/1954962658/SNMPv3USM.o
LOAD build/XC32-PIC32_ETH_SK_ETH795/production/_ext/1954962658/SNTP.o
LOAD build/XC32-PIC32_ETH_SK_ETH795/production/_ext/1954962658/SPIEEPROM.o
LOAD build/XC32-PIC32_ETH_SK_ETH795/production/_ext/1954962658/SPIFlash.o
LOAD build/XC32-PIC32_ETH_SK_ETH795/production/_ext/1954962658/SPIRAM.o
LOAD build/XC32-PIC32_ETH_SK_ETH795/production/_ext/1954962658/SSL.o
LOAD build/XC32-PIC32_ETH_SK_ETH795/production/_ext/1954962658/StackTsk.o
LOAD build/XC32-PIC32_ETH_SK_ETH795/production/_ext/1954962658/TCP.o
LOAD build/XC32-PIC32_ETH_SK_ETH795/production/_ext/1954962658/TCPPerformanceTest.o
LOAD build/XC32-PIC32_ETH_SK_ETH795/production/_ext/1954962658/TFTPc.o
LOAD build/XC32-PIC32_ETH_SK_ETH795/production/_ext/1954962658/Telnet.o
LOAD build/XC32-PIC32_ETH_SK_ETH795/production/_ext/1954962658/Tick.o
LOAD build/XC32-PIC32_ETH_SK_ETH795/production/_ext/1954962658/UART.o
LOAD build/XC32-PIC32_ETH_SK_ETH795/production/_ext/1954962658/UART2TCPBridge.o
LOAD build/XC32-PIC32_ETH_SK_ETH795/production/_ext/1954962658/UDP.o
LOAD build/XC32-PIC32_ETH_SK_ETH795/production/_ext/1954962658/UDPPerformanceTest.o
LOAD build/XC32-PIC32_ETH_SK_ETH795/production/_ext/1954962658/ZeroconfHelper.o
LOAD build/XC32-PIC32_ETH_SK_ETH795/production/_ext/1954962658/ZeroconfLinkLocal.o
LOAD build/XC32-PIC32_ETH_SK_ETH795/production/_ext/1954962658/ZeroconfMulticastDNS.o
LOAD build/XC32-PIC32_ETH_SK_ETH795/production/_ext/1472/MainDemo.o
                0x00000001                __MPLAB_BUILD = 0x1
                0x00003e80                _min_heap_size = 0x3e80
                0x00000800                _min_stack_size = 0x800
LOAD c:/program files (x86)/microchip/xc32/v1.34/bin/bin/../../lib/gcc/pic32mx/4.5.2/../../../../pic32mx/lib/./proc/32MX795F512L\default_isr_vectors.o
LOAD c:/program files (x86)/microchip/xc32/v1.34/bin/bin/../../lib/gcc/pic32mx/4.5.2/../../../../pic32mx/lib\pic32_software_reset.o
                0x00000400                PROVIDE (_min_stack_size, 0x400)
LOAD c:/program files (x86)/microchip/xc32/v1.34/bin/bin/../../lib/gcc/pic32mx/4.5.2/../../../../pic32mx/lib/./proc/32MX795F512L\processor.o
START GROUP
LOAD c:/program files (x86)/microchip/xc32/v1.34/bin/bin/../../lib/gcc/pic32mx/4.5.2/../../../../pic32mx/lib\libmchp_peripheral.a
END GROUP
START GROUP
LOAD c:/program files (x86)/microchip/xc32/v1.34/bin/bin/../../lib/gcc/pic32mx/4.5.2/../../../../pic32mx/lib\libmchp_peripheral_32MX795F512L.a
END GROUP
                0x00000001                PROVIDE (_vector_spacing, 0x1)
                0x9fc01000                _ebase_address = 0x9fc01000
                0xbfc00000                _RESET_ADDR = 0xbfc00000
                0xbfc00380                _BEV_EXCPT_ADDR = 0xbfc00380
                0xbfc00480                _DBG_EXCPT_ADDR = 0xbfc00480
                0xbfc02000                _DBG_CODE_ADDR = 0xbfc02000
                0x00000ff0                _DBG_CODE_SIZE = 0xff0
                0x9fc01180                _GEN_EXCPT_ADDR = (_ebase_address + 0x180)

.config_BFC02FF0
                0xbfc02ff0        0x4
 *(.config_BFC02FF0)
 .config_BFC02FF0
                0xbfc02ff0        0x4 build/XC32-PIC32_ETH_SK_ETH795/production/_ext/1472/MainDemo.o

.config_BFC02FF4
                0xbfc02ff4        0x4
 *(.config_BFC02FF4)
 .config_BFC02FF4
                0xbfc02ff4        0x4 build/XC32-PIC32_ETH_SK_ETH795/production/_ext/1472/MainDemo.o

.config_BFC02FF8
                0xbfc02ff8        0x4
 *(.config_BFC02FF8)
 .config_BFC02FF8
                0xbfc02ff8        0x4 build/XC32-PIC32_ETH_SK_ETH795/production/_ext/1472/MainDemo.o

.config_BFC02FFC
                0xbfc02ffc        0x4
 *(.config_BFC02FFC)
 .config_BFC02FFC
                0xbfc02ffc        0x4 build/XC32-PIC32_ETH_SK_ETH795/production/_ext/1472/MainDemo.o
                0xbfc02000                PROVIDE (_DBG_CODE_ADDR, 0xbfc02000)
                0x00000ff0                PROVIDE (_DBG_CODE_SIZE, 0xff0)

.reset          0xbfc00000      0x1f0
 *(.reset)
 .reset         0xbfc00000        0x8 c:/program files (x86)/microchip/xc32/v1.34/bin/bin/../../lib/gcc/pic32mx/4.5.2/../../../../pic32mx/lib/./proc/32MX795F512L/crt0_mips32r2.o
                0xbfc00000                _reset
 *(.reset.startup)
 .reset.startup
                0xbfc00008      0x1e8 c:/program files (x86)/microchip/xc32/v1.34/bin/bin/../../lib/gcc/pic32mx/4.5.2/../../../../pic32mx/lib/./proc/32MX795F512L/crt0_mips32r2.o

.bev_excpt      0xbfc00380       0x10
 *(.bev_handler)
 .bev_handler   0xbfc00380       0x10 c:/program files (x86)/microchip/xc32/v1.34/bin/bin/../../lib/gcc/pic32mx/4.5.2/../../../../pic32mx/lib/./proc/32MX795F512L/crt0_mips32r2.o

.dbg_excpt      0xbfc00480        0x0
                0xbfc00480                . = (. + DEFINED (_DEBUGGER)?0x8:0x0)

.dbg_code       0xbfc02000        0x0
                0xbfc02000                . = (. + DEFINED (_DEBUGGER)?_DBG_CODE_SIZE:0x0)

.app_excpt      0x9fc01180       0x10
 *(.gen_handler)
 .gen_handler   0x9fc01180       0x10 c:/program files (x86)/microchip/xc32/v1.34/bin/bin/../../lib/gcc/pic32mx/4.5.2/../../../../pic32mx/lib/./proc/32MX795F512L/crt0_mips32r2.o

.vector_0       0x9fc01200        0x8
 *(.vector_0)
 .vector_0      0x9fc01200        0x8 c:/program files (x86)/microchip/xc32/v1.34/bin/bin/../../lib/gcc/pic32mx/4.5.2/../../../../pic32mx/lib\libpic32.a(vector0.o)
                0x9fc01200                __vector_dispatch_0
                0x00000001                ASSERT (((_vector_spacing == 0x0) || (SIZEOF (.vector_0) <= (_vector_spacing << 0x5))), function at exception vector 0 too large)

.vector_1       0x9fc01220        0x8
 *(.vector_1)
 .vector_1      0x9fc01220        0x8 c:/program files (x86)/microchip/xc32/v1.34/bin/bin/../../lib/gcc/pic32mx/4.5.2/../../../../pic32mx/lib\libpic32.a(vector1.o)
                0x9fc01220                __vector_dispatch_1
                0x00000001                ASSERT (((_vector_spacing == 0x0) || (SIZEOF (.vector_1) <= (_vector_spacing << 0x5))), function at exception vector 1 too large)

.vector_2       0x9fc01240        0x8
 *(.vector_2)
 .vector_2      0x9fc01240        0x8 c:/program files (x86)/microchip/xc32/v1.34/bin/bin/../../lib/gcc/pic32mx/4.5.2/../../../../pic32mx/lib\libpic32.a(vector2.o)
                0x9fc01240                __vector_dispatch_2
                0x00000001                ASSERT (((_vector_spacing == 0x0) || (SIZEOF (.vector_2) <= (_vector_spacing << 0x5))), function at exception vector 2 too large)

.vector_3       0x9fc01260        0x8
 *(.vector_3)
 .vector_3      0x9fc01260        0x8 c:/program files (x86)/microchip/xc32/v1.34/bin/bin/../../lib/gcc/pic32mx/4.5.2/../../../../pic32mx/lib\libpic32.a(vector3.o)
                0x9fc01260                __vector_dispatch_3
                0x00000001                ASSERT (((_vector_spacing == 0x0) || (SIZEOF (.vector_3) <= (_vector_spacing << 0x5))), function at exception vector 3 too large)

.vector_4       0x9fc01280        0x8
 *(.vector_4)
 .vector_4      0x9fc01280        0x8 build/XC32-PIC32_ETH_SK_ETH795/production/_ext/1954962658/Tick.o
                0x9fc01280                __vector_dispatch_4
                0x00000001                ASSERT (((_vector_spacing == 0x0) || (SIZEOF (.vector_4) <= (_vector_spacing << 0x5))), function at exception vector 4 too large)

.vector_5       0x9fc012a0        0x8
 *(.vector_5)
 .vector_5      0x9fc012a0        0x8 c:/program files (x86)/microchip/xc32/v1.34/bin/bin/../../lib/gcc/pic32mx/4.5.2/../../../../pic32mx/lib\libpic32.a(vector5.o)
                0x9fc012a0                __vector_dispatch_5
                0x00000001                ASSERT (((_vector_spacing == 0x0) || (SIZEOF (.vector_5) <= (_vector_spacing << 0x5))), function at exception vector 5 too large)

.vector_6       0x9fc012c0        0x8
 *(.vector_6)
 .vector_6      0x9fc012c0        0x8 c:/program files (x86)/microchip/xc32/v1.34/bin/bin/../../lib/gcc/pic32mx/4.5.2/../../../../pic32mx/lib\libpic32.a(vector6.o)
                0x9fc012c0                __vector_dispatch_6
                0x00000001                ASSERT (((_vector_spacing == 0x0) || (SIZEOF (.vector_6) <= (_vector_spacing << 0x5))), function at exception vector 6 too large)

.vector_7       0x9fc012e0        0x8
 *(.vector_7)
 .vector_7      0x9fc012e0        0x8 c:/program files (x86)/microchip/xc32/v1.34/bin/bin/../../lib/gcc/pic32mx/4.5.2/../../../../pic32mx/lib\libpic32.a(vector7.o)
                0x9fc012e0                __vector_dispatch_7
                0x00000001                ASSERT (((_vector_spacing == 0x0) || (SIZEOF (.vector_7) <= (_vector_spacing << 0x5))), function at exception vector 7 too large)

.vector_8       0x9fc01300        0x8
 *(.vector_8)
 .vector_8      0x9fc01300        0x8 c:/program files (x86)/microchip/xc32/v1.34/bin/bin/../../lib/gcc/pic32mx/4.5.2/../../../../pic32mx/lib\libpic32.a(vector8.o)
                0x9fc01300                __vector_dispatch_8
                0x00000001                ASSERT (((_vector_spacing == 0x0) || (SIZEOF (.vector_8) <= (_vector_spacing << 0x5))), function at exception vector 8 too large)

.vector_9       0x9fc01320        0x8
 *(.vector_9)
 .vector_9      0x9fc01320        0x8 c:/program files (x86)/microchip/xc32/v1.34/bin/bin/../../lib/gcc/pic32mx/4.5.2/../../../../pic32mx/lib\libpic32.a(vector9.o)
                0x9fc01320                __vector_dispatch_9
                0x00000001                ASSERT (((_vector_spacing == 0x0) || (SIZEOF (.vector_9) <= (_vector_spacing << 0x5))), function at exception vector 9 too large)

.vector_10      0x9fc01340        0x8
 *(.vector_10)
 .vector_10     0x9fc01340        0x8 c:/program files (x86)/microchip/xc32/v1.34/bin/bin/../../lib/gcc/pic32mx/4.5.2/../../../../pic32mx/lib\libpic32.a(vector10.o)
                0x9fc01340                __vector_dispatch_10
                0x00000001                ASSERT (((_vector_spacing == 0x0) || (SIZEOF (.vector_10) <= (_vector_spacing << 0x5))), function at exception vector 10 too large)

.vector_11      0x9fc01360        0x8
 *(.vector_11)
 .vector_11     0x9fc01360        0x8 c:/program files (x86)/microchip/xc32/v1.34/bin/bin/../../lib/gcc/pic32mx/4.5.2/../../../../pic32mx/lib\libpic32.a(vector11.o)
                0x9fc01360                __vector_dispatch_11
                0x00000001                ASSERT (((_vector_spacing == 0x0) || (SIZEOF (.vector_11) <= (_vector_spacing << 0x5))), function at exception vector 11 too large)

.vector_12      0x9fc01380        0x8
 *(.vector_12)
 .vector_12     0x9fc01380        0x8 c:/program files (x86)/microchip/xc32/v1.34/bin/bin/../../lib/gcc/pic32mx/4.5.2/../../../../pic32mx/lib\libpic32.a(vector12.o)
                0x9fc01380                __vector_dispatch_12
                0x00000001                ASSERT (((_vector_spacing == 0x0) || (SIZEOF (.vector_12) <= (_vector_spacing << 0x5))), function at exception vector 12 too large)

.vector_13      0x9fc013a0        0x8
 *(.vector_13)
 .vector_13     0x9fc013a0        0x8 c:/program files (x86)/microchip/xc32/v1.34/bin/bin/../../lib/gcc/pic32mx/4.5.2/../../../../pic32mx/lib\libpic32.a(vector13.o)
                0x9fc013a0                __vector_dispatch_13
                0x00000001                ASSERT (((_vector_spacing == 0x0) || (SIZEOF (.vector_13) <= (_vector_spacing << 0x5))), function at exception vector 13 too large)

.vector_14      0x9fc013c0        0x8
 *(.vector_14)
 .vector_14     0x9fc013c0        0x8 c:/program files (x86)/microchip/xc32/v1.34/bin/bin/../../lib/gcc/pic32mx/4.5.2/../../../../pic32mx/lib\libpic32.a(vector14.o)
                0x9fc013c0                __vector_dispatch_14
                0x00000001                ASSERT (((_vector_spacing == 0x0) || (SIZEOF (.vector_14) <= (_vector_spacing << 0x5))), function at exception vector 14 too large)

.vector_15      0x9fc013e0        0x8
 *(.vector_15)
 .vector_15     0x9fc013e0        0x8 c:/program files (x86)/microchip/xc32/v1.34/bin/bin/../../lib/gcc/pic32mx/4.5.2/../../../../pic32mx/lib\libpic32.a(vector15.o)
                0x9fc013e0                __vector_dispatch_15
                0x00000001                ASSERT (((_vector_spacing == 0x0) || (SIZEOF (.vector_15) <= (_vector_spacing << 0x5))), function at exception vector 15 too large)

.vector_16      0x9fc01400        0x8
 *(.vector_16)
 .vector_16     0x9fc01400        0x8 c:/program files (x86)/microchip/xc32/v1.34/bin/bin/../../lib/gcc/pic32mx/4.5.2/../../../../pic32mx/lib\libpic32.a(vector16.o)
                0x9fc01400                __vector_dispatch_16
                0x00000001                ASSERT (((_vector_spacing == 0x0) || (SIZEOF (.vector_16) <= (_vector_spacing << 0x5))), function at exception vector 16 too large)

.vector_17      0x9fc01420        0x8
 *(.vector_17)
 .vector_17     0x9fc01420        0x8 c:/program files (x86)/microchip/xc32/v1.34/bin/bin/../../lib/gcc/pic32mx/4.5.2/../../../../pic32mx/lib\libpic32.a(vector17.o)
                0x9fc01420                __vector_dispatch_17
                0x00000001                ASSERT (((_vector_spacing == 0x0) || (SIZEOF (.vector_17) <= (_vector_spacing << 0x5))), function at exception vector 17 too large)

.vector_18      0x9fc01440        0x8
 *(.vector_18)
 .vector_18     0x9fc01440        0x8 c:/program files (x86)/microchip/xc32/v1.34/bin/bin/../../lib/gcc/pic32mx/4.5.2/../../../../pic32mx/lib\libpic32.a(vector18.o)
                0x9fc01440                __vector_dispatch_18
                0x00000001                ASSERT (((_vector_spacing == 0x0) || (SIZEOF (.vector_18) <= (_vector_spacing << 0x5))), function at exception vector 18 too large)

.vector_19      0x9fc01460        0x8
 *(.vector_19)
 .vector_19     0x9fc01460        0x8 c:/program files (x86)/microchip/xc32/v1.34/bin/bin/../../lib/gcc/pic32mx/4.5.2/../../../../pic32mx/lib\libpic32.a(vector19.o)
                0x9fc01460                __vector_dispatch_19
                0x00000001                ASSERT (((_vector_spacing == 0x0) || (SIZEOF (.vector_19) <= (_vector_spacing << 0x5))), function at exception vector 19 too large)

.vector_20      0x9fc01480        0x8
 *(.vector_20)
 .vector_20     0x9fc01480        0x8 c:/program files (x86)/microchip/xc32/v1.34/bin/bin/../../lib/gcc/pic32mx/4.5.2/../../../../pic32mx/lib\libpic32.a(vector20.o)
                0x9fc01480                __vector_dispatch_20
                0x00000001                ASSERT (((_vector_spacing == 0x0) || (SIZEOF (.vector_20) <= (_vector_spacing << 0x5))), function at exception vector 20 too large)

.vector_21      0x9fc014a0        0x8
 *(.vector_21)
 .vector_21     0x9fc014a0        0x8 c:/program files (x86)/microchip/xc32/v1.34/bin/bin/../../lib/gcc/pic32mx/4.5.2/../../../../pic32mx/lib\libpic32.a(vector21.o)
                0x9fc014a0                __vector_dispatch_21
                0x00000001                ASSERT (((_vector_spacing == 0x0) || (SIZEOF (.vector_21) <= (_vector_spacing << 0x5))), function at exception vector 21 too large)

.vector_22      0x9fc014c0        0x8
 *(.vector_22)
 .vector_22     0x9fc014c0        0x8 c:/program files (x86)/microchip/xc32/v1.34/bin/bin/../../lib/gcc/pic32mx/4.5.2/../../../../pic32mx/lib\libpic32.a(vector22.o)
                0x9fc014c0                __vector_dispatch_22
                0x00000001                ASSERT (((_vector_spacing == 0x0) || (SIZEOF (.vector_22) <= (_vector_spacing << 0x5))), function at exception vector 22 too large)

.vector_23      0x9fc014e0        0x8
 *(.vector_23)
 .vector_23     0x9fc014e0        0x8 c:/program files (x86)/microchip/xc32/v1.34/bin/bin/../../lib/gcc/pic32mx/4.5.2/../../../../pic32mx/lib\libpic32.a(vector23.o)
                0x9fc014e0                __vector_dispatch_23
                0x00000001                ASSERT (((_vector_spacing == 0x0) || (SIZEOF (.vector_23) <= (_vector_spacing << 0x5))), function at exception vector 23 too large)

.vector_24      0x9fc01500        0x8
 *(.vector_24)
 .vector_24     0x9fc01500        0x8 c:/program files (x86)/microchip/xc32/v1.34/bin/bin/../../lib/gcc/pic32mx/4.5.2/../../../../pic32mx/lib\libpic32.a(vector24.o)
                0x9fc01500                __vector_dispatch_24
                0x00000001                ASSERT (((_vector_spacing == 0x0) || (SIZEOF (.vector_24) <= (_vector_spacing << 0x5))), function at exception vector 24 too large)

.vector_25      0x9fc01520        0x8
 *(.vector_25)
 .vector_25     0x9fc01520        0x8 c:/program files (x86)/microchip/xc32/v1.34/bin/bin/../../lib/gcc/pic32mx/4.5.2/../../../../pic32mx/lib\libpic32.a(vector25.o)
                0x9fc01520                __vector_dispatch_25
                0x00000001                ASSERT (((_vector_spacing == 0x0) || (SIZEOF (.vector_25) <= (_vector_spacing << 0x5))), function at exception vector 25 too large)

.vector_26      0x9fc01540        0x8
 *(.vector_26)
 .vector_26     0x9fc01540        0x8 c:/program files (x86)/microchip/xc32/v1.34/bin/bin/../../lib/gcc/pic32mx/4.5.2/../../../../pic32mx/lib\libpic32.a(vector26.o)
                0x9fc01540                __vector_dispatch_26
                0x00000001                ASSERT (((_vector_spacing == 0x0) || (SIZEOF (.vector_26) <= (_vector_spacing << 0x5))), function at exception vector 26 too large)

.vector_27      0x9fc01560        0x8
 *(.vector_27)
 .vector_27     0x9fc01560        0x8 c:/program files (x86)/microchip/xc32/v1.34/bin/bin/../../lib/gcc/pic32mx/4.5.2/../../../../pic32mx/lib\libpic32.a(vector27.o)
                0x9fc01560                __vector_dispatch_27
                0x00000001                ASSERT (((_vector_spacing == 0x0) || (SIZEOF (.vector_27) <= (_vector_spacing << 0x5))), function at exception vector 27 too large)

.vector_28      0x9fc01580        0x8
 *(.vector_28)
 .vector_28     0x9fc01580        0x8 c:/program files (x86)/microchip/xc32/v1.34/bin/bin/../../lib/gcc/pic32mx/4.5.2/../../../../pic32mx/lib\libpic32.a(vector28.o)
                0x9fc01580                __vector_dispatch_28
                0x00000001                ASSERT (((_vector_spacing == 0x0) || (SIZEOF (.vector_28) <= (_vector_spacing << 0x5))), function at exception vector 28 too large)

.vector_29      0x9fc015a0        0x8
 *(.vector_29)
 .vector_29     0x9fc015a0        0x8 c:/program files (x86)/microchip/xc32/v1.34/bin/bin/../../lib/gcc/pic32mx/4.5.2/../../../../pic32mx/lib\libpic32.a(vector29.o)
                0x9fc015a0                __vector_dispatch_29
                0x00000001                ASSERT (((_vector_spacing == 0x0) || (SIZEOF (.vector_29) <= (_vector_spacing << 0x5))), function at exception vector 29 too large)

.vector_30      0x9fc015c0        0x8
 *(.vector_30)
 .vector_30     0x9fc015c0        0x8 c:/program files (x86)/microchip/xc32/v1.34/bin/bin/../../lib/gcc/pic32mx/4.5.2/../../../../pic32mx/lib\libpic32.a(vector30.o)
                0x9fc015c0                __vector_dispatch_30
                0x00000001                ASSERT (((_vector_spacing == 0x0) || (SIZEOF (.vector_30) <= (_vector_spacing << 0x5))), function at exception vector 30 too large)

.vector_31      0x9fc015e0        0x8
 *(.vector_31)
 .vector_31     0x9fc015e0        0x8 c:/program files (x86)/microchip/xc32/v1.34/bin/bin/../../lib/gcc/pic32mx/4.5.2/../../../../pic32mx/lib\libpic32.a(vector31.o)
                0x9fc015e0                __vector_dispatch_31
                0x00000001                ASSERT (((_vector_spacing == 0x0) || (SIZEOF (.vector_31) <= (_vector_spacing << 0x5))), function at exception vector 31 too large)

.vector_32      0x9fc01600        0x8
 *(.vector_32)
 .vector_32     0x9fc01600        0x8 c:/program files (x86)/microchip/xc32/v1.34/bin/bin/../../lib/gcc/pic32mx/4.5.2/../../../../pic32mx/lib\libpic32.a(vector32.o)
                0x9fc01600                __vector_dispatch_32
                0x00000001                ASSERT (((_vector_spacing == 0x0) || (SIZEOF (.vector_32) <= (_vector_spacing << 0x5))), function at exception vector 32 too large)

.vector_33      0x9fc01620        0x8
 *(.vector_33)
 .vector_33     0x9fc01620        0x8 c:/program files (x86)/microchip/xc32/v1.34/bin/bin/../../lib/gcc/pic32mx/4.5.2/../../../../pic32mx/lib\libpic32.a(vector33.o)
                0x9fc01620                __vector_dispatch_33
                0x00000001                ASSERT (((_vector_spacing == 0x0) || (SIZEOF (.vector_33) <= (_vector_spacing << 0x5))), function at exception vector 33 too large)

.vector_34      0x9fc01640        0x8
 *(.vector_34)
 .vector_34     0x9fc01640        0x8 c:/program files (x86)/microchip/xc32/v1.34/bin/bin/../../lib/gcc/pic32mx/4.5.2/../../../../pic32mx/lib\libpic32.a(vector34.o)
                0x9fc01640                __vector_dispatch_34
                0x00000001                ASSERT (((_vector_spacing == 0x0) || (SIZEOF (.vector_34) <= (_vector_spacing << 0x5))), function at exception vector 34 too large)

.vector_35      0x9fc01660        0x8
 *(.vector_35)
 .vector_35     0x9fc01660        0x8 c:/program files (x86)/microchip/xc32/v1.34/bin/bin/../../lib/gcc/pic32mx/4.5.2/../../../../pic32mx/lib\libpic32.a(vector35.o)
                0x9fc01660                __vector_dispatch_35
                0x00000001                ASSERT (((_vector_spacing == 0x0) || (SIZEOF (.vector_35) <= (_vector_spacing << 0x5))), function at exception vector 35 too large)

.vector_36      0x9fc01680        0x8
 *(.vector_36)
 .vector_36     0x9fc01680        0x8 c:/program files (x86)/microchip/xc32/v1.34/bin/bin/../../lib/gcc/pic32mx/4.5.2/../../../../pic32mx/lib\libpic32.a(vector36.o)
                0x9fc01680                __vector_dispatch_36
                0x00000001                ASSERT (((_vector_spacing == 0x0) || (SIZEOF (.vector_36) <= (_vector_spacing << 0x5))), function at exception vector 36 too large)

.vector_37      0x9fc016a0        0x8
 *(.vector_37)
 .vector_37     0x9fc016a0        0x8 c:/program files (x86)/microchip/xc32/v1.34/bin/bin/../../lib/gcc/pic32mx/4.5.2/../../../../pic32mx/lib\libpic32.a(vector37.o)
                0x9fc016a0                __vector_dispatch_37
                0x00000001                ASSERT (((_vector_spacing == 0x0) || (SIZEOF (.vector_37) <= (_vector_spacing << 0x5))), function at exception vector 37 too large)

.vector_38      0x9fc016c0        0x8
 *(.vector_38)
 .vector_38     0x9fc016c0        0x8 c:/program files (x86)/microchip/xc32/v1.34/bin/bin/../../lib/gcc/pic32mx/4.5.2/../../../../pic32mx/lib\libpic32.a(vector38.o)
                0x9fc016c0                __vector_dispatch_38
                0x00000001                ASSERT (((_vector_spacing == 0x0) || (SIZEOF (.vector_38) <= (_vector_spacing << 0x5))), function at exception vector 38 too large)

.vector_39      0x9fc016e0        0x8
 *(.vector_39)
 .vector_39     0x9fc016e0        0x8 c:/program files (x86)/microchip/xc32/v1.34/bin/bin/../../lib/gcc/pic32mx/4.5.2/../../../../pic32mx/lib\libpic32.a(vector39.o)
                0x9fc016e0                __vector_dispatch_39
                0x00000001                ASSERT (((_vector_spacing == 0x0) || (SIZEOF (.vector_39) <= (_vector_spacing << 0x5))), function at exception vector 39 too large)

.vector_40      0x9fc01700        0x8
 *(.vector_40)
 .vector_40     0x9fc01700        0x8 c:/program files (x86)/microchip/xc32/v1.34/bin/bin/../../lib/gcc/pic32mx/4.5.2/../../../../pic32mx/lib\libpic32.a(vector40.o)
                0x9fc01700                __vector_dispatch_40
                0x00000001                ASSERT (((_vector_spacing == 0x0) || (SIZEOF (.vector_40) <= (_vector_spacing << 0x5))), function at exception vector 40 too large)

.vector_41      0x9fc01720        0x8
 *(.vector_41)
 .vector_41     0x9fc01720        0x8 c:/program files (x86)/microchip/xc32/v1.34/bin/bin/../../lib/gcc/pic32mx/4.5.2/../../../../pic32mx/lib\libpic32.a(vector41.o)
                0x9fc01720                __vector_dispatch_41
                0x00000001                ASSERT (((_vector_spacing == 0x0) || (SIZEOF (.vector_41) <= (_vector_spacing << 0x5))), function at exception vector 41 too large)

.vector_42      0x9fc01740        0x8
 *(.vector_42)
 .vector_42     0x9fc01740        0x8 c:/program files (x86)/microchip/xc32/v1.34/bin/bin/../../lib/gcc/pic32mx/4.5.2/../../../../pic32mx/lib\libpic32.a(vector42.o)
                0x9fc01740                __vector_dispatch_42
                0x00000001                ASSERT (((_vector_spacing == 0x0) || (SIZEOF (.vector_42) <= (_vector_spacing << 0x5))), function at exception vector 42 too large)

.vector_43      0x9fc01760        0x8
 *(.vector_43)
 .vector_43     0x9fc01760        0x8 c:/program files (x86)/microchip/xc32/v1.34/bin/bin/../../lib/gcc/pic32mx/4.5.2/../../../../pic32mx/lib\libpic32.a(vector43.o)
                0x9fc01760                __vector_dispatch_43
                0x00000001                ASSERT (((_vector_spacing == 0x0) || (SIZEOF (.vector_43) <= (_vector_spacing << 0x5))), function at exception vector 43 too large)

.vector_44      0x9fc01780        0x8
 *(.vector_44)
 .vector_44     0x9fc01780        0x8 c:/program files (x86)/microchip/xc32/v1.34/bin/bin/../../lib/gcc/pic32mx/4.5.2/../../../../pic32mx/lib\libpic32.a(vector44.o)
                0x9fc01780                __vector_dispatch_44
                0x00000001                ASSERT (((_vector_spacing == 0x0) || (SIZEOF (.vector_44) <= (_vector_spacing << 0x5))), function at exception vector 44 too large)

.vector_45      0x9fc017a0        0x8
 *(.vector_45)
 .vector_45     0x9fc017a0        0x8 c:/program files (x86)/microchip/xc32/v1.34/bin/bin/../../lib/gcc/pic32mx/4.5.2/../../../../pic32mx/lib\libpic32.a(vector45.o)
                0x9fc017a0                __vector_dispatch_45
                0x00000001                ASSERT (((_vector_spacing == 0x0) || (SIZEOF (.vector_45) <= (_vector_spacing << 0x5))), function at exception vector 45 too large)

.vector_46      0x9fc017c0        0x8
 *(.vector_46)
 .vector_46     0x9fc017c0        0x8 c:/program files (x86)/microchip/xc32/v1.34/bin/bin/../../lib/gcc/pic32mx/4.5.2/../../../../pic32mx/lib\libpic32.a(vector46.o)
                0x9fc017c0                __vector_dispatch_46
                0x00000001                ASSERT (((_vector_spacing == 0x0) || (SIZEOF (.vector_46) <= (_vector_spacing << 0x5))), function at exception vector 46 too large)

.vector_47      0x9fc017e0        0x8
 *(.vector_47)
 .vector_47     0x9fc017e0        0x8 c:/program files (x86)/microchip/xc32/v1.34/bin/bin/../../lib/gcc/pic32mx/4.5.2/../../../../pic32mx/lib\libpic32.a(vector47.o)
                0x9fc017e0                __vector_dispatch_47
                0x00000001                ASSERT (((_vector_spacing == 0x0) || (SIZEOF (.vector_47) <= (_vector_spacing << 0x5))), function at exception vector 47 too large)

.vector_48      0x9fc01800        0x8
 *(.vector_48)
 .vector_48     0x9fc01800        0x8 c:/program files (x86)/microchip/xc32/v1.34/bin/bin/../../lib/gcc/pic32mx/4.5.2/../../../../pic32mx/lib\libpic32.a(vector48.o)
                0x9fc01800                __vector_dispatch_48
                0x00000001                ASSERT (((_vector_spacing == 0x0) || (SIZEOF (.vector_48) <= (_vector_spacing << 0x5))), function at exception vector 48 too large)

.vector_49      0x9fc01820        0x8
 *(.vector_49)
 .vector_49     0x9fc01820        0x8 c:/program files (x86)/microchip/xc32/v1.34/bin/bin/../../lib/gcc/pic32mx/4.5.2/../../../../pic32mx/lib\libpic32.a(vector49.o)
                0x9fc01820                __vector_dispatch_49
                0x00000001                ASSERT (((_vector_spacing == 0x0) || (SIZEOF (.vector_49) <= (_vector_spacing << 0x5))), function at exception vector 49 too large)

.vector_50      0x9fc01840        0x8
 *(.vector_50)
 .vector_50     0x9fc01840        0x8 c:/program files (x86)/microchip/xc32/v1.34/bin/bin/../../lib/gcc/pic32mx/4.5.2/../../../../pic32mx/lib\libpic32.a(vector50.o)
                0x9fc01840                __vector_dispatch_50
                0x00000001                ASSERT (((_vector_spacing == 0x0) || (SIZEOF (.vector_50) <= (_vector_spacing << 0x5))), function at exception vector 50 too large)

.vector_51      0x9fc01860        0x8
 *(.vector_51)
 .vector_51     0x9fc01860        0x8 c:/program files (x86)/microchip/xc32/v1.34/bin/bin/../../lib/gcc/pic32mx/4.5.2/../../../../pic32mx/lib\libpic32.a(vector51.o)
                0x9fc01860                __vector_dispatch_51
                0x00000001                ASSERT (((_vector_spacing == 0x0) || (SIZEOF (.vector_51) <= (_vector_spacing << 0x5))), function at exception vector 51 too large)

.vector_52      0x9fc01880        0x0
 *(.vector_52)
                0x00000001                ASSERT (((_vector_spacing == 0x0) || (SIZEOF (.vector_52) <= (_vector_spacing << 0x5))), function at exception vector 52 too large)

.vector_53      0x9fc018a0        0x0
 *(.vector_53)
                0x00000001                ASSERT (((_vector_spacing == 0x0) || (SIZEOF (.vector_53) <= (_vector_spacing << 0x5))), function at exception vector 53 too large)

.vector_54      0x9fc018c0        0x0
 *(.vector_54)
                0x00000001                ASSERT (((_vector_spacing == 0x0) || (SIZEOF (.vector_54) <= (_vector_spacing << 0x5))), function at exception vector 54 too large)

.vector_55      0x9fc018e0        0x0
 *(.vector_55)
                0x00000001                ASSERT (((_vector_spacing == 0x0) || (SIZEOF (.vector_55) <= (_vector_spacing << 0x5))), function at exception vector 55 too large)

.vector_56      0x9fc01900        0x0
 *(.vector_56)
                0x00000001                ASSERT (((_vector_spacing == 0x0) || (SIZEOF (.vector_56) <= (_vector_spacing << 0x5))), function at exception vector 56 too large)

.vector_57      0x9fc01920        0x0
 *(.vector_57)
                0x00000001                ASSERT (((_vector_spacing == 0x0) || (SIZEOF (.vector_57) <= (_vector_spacing << 0x5))), function at exception vector 57 too large)

.vector_58      0x9fc01940        0x0
 *(.vector_58)
                0x00000001                ASSERT (((_vector_spacing == 0x0) || (SIZEOF (.vector_58) <= (_vector_spacing << 0x5))), function at exception vector 58 too large)

.vector_59      0x9fc01960        0x0
 *(.vector_59)
                0x00000001                ASSERT (((_vector_spacing == 0x0) || (SIZEOF (.vector_59) <= (_vector_spacing << 0x5))), function at exception vector 59 too large)

.vector_60      0x9fc01980        0x0
 *(.vector_60)
                0x00000001                ASSERT (((_vector_spacing == 0x0) || (SIZEOF (.vector_60) <= (_vector_spacing << 0x5))), function at exception vector 60 too large)

.vector_61      0x9fc019a0        0x0
 *(.vector_61)
                0x00000001                ASSERT (((_vector_spacing == 0x0) || (SIZEOF (.vector_61) <= (_vector_spacing << 0x5))), function at exception vector 61 too large)

.vector_62      0x9fc019c0        0x0
 *(.vector_62)
                0x00000001                ASSERT (((_vector_spacing == 0x0) || (SIZEOF (.vector_62) <= (_vector_spacing << 0x5))), function at exception vector 62 too large)

.vector_63      0x9fc019e0        0x0
 *(.vector_63)
                0x00000001                ASSERT (((_vector_spacing == 0x0) || (SIZEOF (.vector_63) <= (_vector_spacing << 0x5))), function at exception vector 63 too large)

.startup
 *(.startup)

.text           0x9d000000        0x0
 *(.stub .gnu.linkonce.t.*)
 *(.text.*personality*)
 *(.mips16.fn.*)
 *(.mips16.call.*)
 *(.gnu.warning)
                0x9d000000                . = ALIGN (0x4)

.init           0x9d000000        0x0
 *crti.o(.init)
 *crtbegin.o(.init)
 *(EXCLUDE_FILE(*crtn.o *crtend?.o *crtend.o) .init)
 *crtend.o(.init)
 *crtn.o(.init)
                0x9d000000                . = ALIGN (0x4)

.fini           0x9d000000        0x0
 *(.fini)
                0x9d000000                . = ALIGN (0x4)

.preinit_array  0x9d000000        0x0
                0x9d000000                PROVIDE (__preinit_array_start, .)
 *(.preinit_array)
                0x9d000000                PROVIDE (__preinit_array_end, .)
                0x9d000000                . = ALIGN (0x4)

.init_array     0x9d000000        0x0
                0x9d000000                PROVIDE (__init_array_start, .)
 *(SORT(.init_array.*))
 *(.init_array)
                0x9d000000                PROVIDE (__init_array_end, .)
                0x9d000000                . = ALIGN (0x4)

.fini_array     0x9d000000        0x0
                0x9d000000                PROVIDE (__fini_array_start, .)
 *(SORT(.fini_array.*))
 *(.fini_array)
                0x9d000000                PROVIDE (__fini_array_end, .)
                0x9d000000                . = ALIGN (0x4)

.ctors          0x9d000000        0x0
 *crtbegin.o(.ctors)
 *crtbegin?.o(.ctors)
 *(EXCLUDE_FILE(*crtend?.o *crtend.o) .ctors)
 *(SORT(.ctors.*))
 *(.ctors)
                0x9d000000                . = ALIGN (0x4)

.dtors          0x9d000000        0x0
 *crtbegin.o(.dtors)
 *crtbegin?.o(.dtors)
 *(EXCLUDE_FILE(*crtend?.o *crtend.o) .dtors)
 *(SORT(.dtors.*))
 *(.dtors)
                0x9d000000                . = ALIGN (0x4)

.rodata         0x9d000000        0x0
 *(.gnu.linkonce.r.*)
 *(.rodata1)
                0x9d000000                . = ALIGN (0x4)

.sdata2         0x9fc00490        0x0
 *(.sdata2 .sdata2.* .gnu.linkonce.s2.*)
                0x9fc00490                . = ALIGN (0x4)

.sbss2          0x9fc00490        0x0
 *(.sbss2 .sbss2.* .gnu.linkonce.sb2.*)
                0x9fc00490                . = ALIGN (0x4)

.eh_frame_hdr
 *(.eh_frame_hdr)
                0x9fc00490                . = ALIGN (0x4)

.eh_frame
 *(.eh_frame)
                0x9fc00490                . = ALIGN (0x4)

.gcc_except_table
 *(.gcc_except_table .gcc_except_table.*)
                0x9fc00490                . = ALIGN (0x4)

.dbg_data       0xa0000000        0x0
                0xa0000000                . = (. + DEFINED (_DEBUGGER)?0x200:0x0)

.jcr            0xa0000000        0x0
 *(.jcr)
                0xa0000000                . = ALIGN (0x4)

.eh_frame       0xa0000000       0x30
 *(.eh_frame)
 .eh_frame      0xa0000000       0x20 c:/program files (x86)/microchip/xc32/v1.34/bin/bin/../../lib/gcc/pic32mx/4.5.2\libgcc.a(_udivdi3.o)
 .eh_frame      0xa0000020       0x10 c:/program files (x86)/microchip/xc32/v1.34/bin/bin/../../lib/gcc/pic32mx/4.5.2\libgcc.a(_umoddi3.o)
                0xa0000030                . = ALIGN (0x4)

.gcc_except_table
 *(.gcc_except_table .gcc_except_table.*)
                0xa0000030                . = ALIGN (0x4)

.persist        0xa0000030        0x0
                0xa0000030                _persist_begin = .
 *(.persist .persist.*)
 *(.pbss .pbss.*)
                0xa0000030                . = ALIGN (0x4)
                0xa0000030                _persist_end = .

.data           0xa0000030        0x0
 *(.gnu.linkonce.d.*)
 *(.data1)
                0xa0000030                . = ALIGN (0x4)
                0xa0000030                . = .
                0xa0008020                _gp = (ALIGN (0x10) + 0x7ff0)

.got            0xa0000030        0x0
 *(.got.plt)
 *(.got)
                0xa0000030                . = ALIGN (0x4)

.sdata          0xa0000030        0x8
                0xa0000030                _sdata_begin = .
 *(.sdata .sdata.* .gnu.linkonce.s.*)
 .sdata         0xa0000030        0x4 build/XC32-PIC32_ETH_SK_ETH795/production/_ext/1954962658/Helpers.o
 .sdata         0xa0000034        0x2 build/XC32-PIC32_ETH_SK_ETH795/production/_ext/1954962658/UDP.o
                0xa0000038                . = ALIGN (0x4)
 *fill*         0xa0000036        0x2 
                0xa0000038                _sdata_end = .

.lit8
 *(.lit8)

.lit4
 *(.lit4)
                0xa0000038                . = ALIGN (0x4)
                0xa0000038                _data_end = .
                0xa0000038                _bss_begin = .

.sbss           0xa0000038       0xc0
                0xa0000038                _sbss_begin = .
 *(.dynsbss)
 *(.sbss .sbss.* .gnu.linkonce.sb.*)
 .sbss          0xa0000038        0x4 build/XC32-PIC32_ETH_SK_ETH795/production/_ext/1954962658/ARP.o
 .sbss          0xa000003c        0x4 build/XC32-PIC32_ETH_SK_ETH795/production/_ext/1954962658/DHCP.o
                0xa000003c                DHCPClientInitializedOnce
 .sbss          0xa0000040       0x40 build/XC32-PIC32_ETH_SK_ETH795/production/_ext/1954962658/ETHPIC32IntMac.o
                0xa000006c                _stackMgrRxOkPkts
                0xa0000070                _stackMgrRxBadPkts
                0xa0000074                _stackMgrInGetHdr
                0xa0000078                _stackMgrRxDiscarded
                0xa000007c                _stackMgrTxNotReady
 .sbss          0xa0000080        0x4 build/XC32-PIC32_ETH_SK_ETH795/production/_ext/1954962658/IP.o
 .sbss          0xa0000084        0xc build/XC32-PIC32_ETH_SK_ETH795/production/_ext/1954962658/StackTsk.o
 .sbss          0xa0000090       0x10 build/XC32-PIC32_ETH_SK_ETH795/production/_ext/1954962658/Tick.o
 .sbss          0xa00000a0        0x8 build/XC32-PIC32_ETH_SK_ETH795/production/_ext/1954962658/UDP.o
 .sbss          0xa00000a8        0x8 build/XC32-PIC32_ETH_SK_ETH795/production/_ext/1472/MainDemo.o
 .sbss          0xa00000b0       0x20 c:/program files (x86)/microchip/xc32/v1.34/bin/bin/../../lib/gcc/pic32mx/4.5.2/../../../../pic32mx/lib\libmchp_peripheral_32MX795F512L.a(eth_descriptors_add_lib.o)
                0xa00000b0                _EthTxFreeList
                0xa00000b8                _EthTxBusyList
                0xa00000c0                _EthRxFreeList
                0xa00000c8                _EthRxBusyList
 .sbss          0xa00000d0       0x10 c:/program files (x86)/microchip/xc32/v1.34/bin/bin/../../lib/gcc/pic32mx/4.5.2/../../../../pic32mx/lib\libc.a(malloc.o)
                0xa00000d0                __allocp
                0xa00000d4                __alloct
                0xa00000d8                __allocx
 .sbss          0xa00000e0        0x8 c:/program files (x86)/microchip/xc32/v1.34/bin/bin/../../lib/gcc/pic32mx/4.5.2/../../../../pic32mx/lib\libpic32.a(sbrk.o)
                0xa00000e0                _minbrk
                0xa00000e4                _maxbrk
 .sbss          0xa00000e8        0x4 c:/program files (x86)/microchip/xc32/v1.34/bin/bin/../../lib/gcc/pic32mx/4.5.2/../../../../pic32mx/lib\libpic32.a(errno.o)
                0xa00000e8                errno
 *(.scommon)
 .scommon       0xa00000ec        0x4 build/XC32-PIC32_ETH_SK_ETH795/production/_ext/1954962658/ETHPIC32ExtPhy.o
                0xa00000ec                _PhyAdd
 .scommon       0xa00000f0        0x5 build/XC32-PIC32_ETH_SK_ETH795/production/_ext/1954962658/UDP.o
                0xa00000f0                UDPRxCount
                0xa00000f2                UDPTxCount
                0xa00000f4                activeUDPSocket
                0xa00000f5                _sbss_end = .
                0xa00000f8                . = ALIGN (0x4)
 *fill*         0xa00000f5        0x3 

.bss            0xa00000f8      0x120
 *(.dynbss)
 *(COMMON)
 COMMON         0xa00000f8        0xa build/XC32-PIC32_ETH_SK_ETH795/production/_ext/1954962658/StackTsk.o
                0xa00000f8                remoteNode
 *fill*         0xa0000102        0x2 
 COMMON         0xa0000104       0xe0 build/XC32-PIC32_ETH_SK_ETH795/production/_ext/1954962658/UDP.o
                0xa0000104                UDPSocketInfo
 COMMON         0xa00001e4       0x33 build/XC32-PIC32_ETH_SK_ETH795/production/_ext/1472/MainDemo.o
                0xa00001e4                AppConfig
                0xa0000218                . = ALIGN ((. != 0x0)?0x4:0x1)
 *fill*         0xa0000217        0x1 
                0xa0000218                . = ALIGN (0x4)
                0xa0000218                _end = .
                0xa0000218                _bss_end = .
                0x00020000                _bmxdudba_address = 0x20000
                0x00020000                _bmxdupba_address = 0x20000

/DISCARD/
 *(.pdr)
 *(.rel.dyn)
 *(.note.GNU-stack)
 *(.note.GNU-stack)
 *(.gnu_debuglink)
 *(.gnu.lto_*)
 *(.discard)

.gptab.sdata
 *(.gptab.data)
 *(.gptab.sdata)

.gptab.sbss
 *(.gptab.bss)
 *(.gptab.sbss)

.mdebug.abi32   0xa0000218        0x0
 *(.mdebug.abi32)
 .mdebug.abi32  0xa0000218        0x0 build/XC32-PIC32_ETH_SK_ETH795/production/_ext/1954962658/ARCFOUR.o
 .mdebug.abi32  0xa0000218        0x0 build/XC32-PIC32_ETH_SK_ETH795/production/_ext/1954962658/ARP.o
 .mdebug.abi32  0xa0000218        0x0 build/XC32-PIC32_ETH_SK_ETH795/production/_ext/1954962658/Announce.o
 .mdebug.abi32  0xa0000218        0x0 build/XC32-PIC32_ETH_SK_ETH795/production/_ext/1954962658/AutoIP.o
 .mdebug.abi32  0xa0000218        0x0 build/XC32-PIC32_ETH_SK_ETH795/production/_ext/1954962658/BerkeleyAPI.o
 .mdebug.abi32  0xa0000218        0x0 build/XC32-PIC32_ETH_SK_ETH795/production/_ext/1954962658/BigInt.o
 .mdebug.abi32  0xa0000218        0x0 build/XC32-PIC32_ETH_SK_ETH795/production/_ext/1954962658/DHCP.o
 .mdebug.abi32  0xa0000218        0x0 build/XC32-PIC32_ETH_SK_ETH795/production/_ext/1954962658/DHCPs.o
 .mdebug.abi32  0xa0000218        0x0 build/XC32-PIC32_ETH_SK_ETH795/production/_ext/1954962658/DNS.o
 .mdebug.abi32  0xa0000218        0x0 build/XC32-PIC32_ETH_SK_ETH795/production/_ext/1954962658/DNSs.o
 .mdebug.abi32  0xa0000218        0x0 build/XC32-PIC32_ETH_SK_ETH795/production/_ext/1954962658/Delay.o
 .mdebug.abi32  0xa0000218        0x0 build/XC32-PIC32_ETH_SK_ETH795/production/_ext/1954962658/DynDNS.o
 .mdebug.abi32  0xa0000218        0x0 build/XC32-PIC32_ETH_SK_ETH795/production/_ext/1954962658/ENC28J60.o
 .mdebug.abi32  0xa0000218        0x0 build/XC32-PIC32_ETH_SK_ETH795/production/_ext/1954962658/ENCX24J600.o
 .mdebug.abi32  0xa0000218        0x0 build/XC32-PIC32_ETH_SK_ETH795/production/_ext/1954962658/ETHPIC32ExtPhy.o
 .mdebug.abi32  0xa0000218        0x0 build/XC32-PIC32_ETH_SK_ETH795/production/_ext/1954962658/ETHPIC32ExtPhyDP83848.o
 .mdebug.abi32  0xa0000218        0x0 build/XC32-PIC32_ETH_SK_ETH795/production/_ext/1954962658/ETHPIC32IntMac.o
 .mdebug.abi32  0xa0000218        0x0 build/XC32-PIC32_ETH_SK_ETH795/production/_ext/1954962658/FTP.o
 .mdebug.abi32  0xa0000218        0x0 build/XC32-PIC32_ETH_SK_ETH795/production/_ext/1954962658/FileSystem.o
 .mdebug.abi32  0xa0000218        0x0 build/XC32-PIC32_ETH_SK_ETH795/production/_ext/1954962658/HTTP2.o
 .mdebug.abi32  0xa0000218        0x0 build/XC32-PIC32_ETH_SK_ETH795/production/_ext/1954962658/Hashes.o
 .mdebug.abi32  0xa0000218        0x0 build/XC32-PIC32_ETH_SK_ETH795/production/_ext/1954962658/Helpers.o
 .mdebug.abi32  0xa0000218        0x0 build/XC32-PIC32_ETH_SK_ETH795/production/_ext/1954962658/ICMP.o
 .mdebug.abi32  0xa0000218        0x0 build/XC32-PIC32_ETH_SK_ETH795/production/_ext/1954962658/IP.o
 .mdebug.abi32  0xa0000218        0x0 build/XC32-PIC32_ETH_SK_ETH795/production/_ext/1954962658/LCDBlocking.o
 .mdebug.abi32  0xa0000218        0x0 build/XC32-PIC32_ETH_SK_ETH795/production/_ext/1954962658/MPFS2.o
 .mdebug.abi32  0xa0000218        0x0 build/XC32-PIC32_ETH_SK_ETH795/production/_ext/1954962658/NBNS.o
 .mdebug.abi32  0xa0000218        0x0 build/XC32-PIC32_ETH_SK_ETH795/production/_ext/1954962658/RSA.o
 .mdebug.abi32  0xa0000218        0x0 build/XC32-PIC32_ETH_SK_ETH795/production/_ext/1954962658/Random.o
 .mdebug.abi32  0xa0000218        0x0 build/XC32-PIC32_ETH_SK_ETH795/production/_ext/1954962658/Reboot.o
 .mdebug.abi32  0xa0000218        0x0 build/XC32-PIC32_ETH_SK_ETH795/production/_ext/1954962658/SMTP.o
 .mdebug.abi32  0xa0000218        0x0 build/XC32-PIC32_ETH_SK_ETH795/production/_ext/1954962658/SNMP.o
 .mdebug.abi32  0xa0000218        0x0 build/XC32-PIC32_ETH_SK_ETH795/production/_ext/1954962658/SNMPv3.o
 .mdebug.abi32  0xa0000218        0x0 build/XC32-PIC32_ETH_SK_ETH795/production/_ext/1954962658/SNMPv3USM.o
 .mdebug.abi32  0xa0000218        0x0 build/XC32-PIC32_ETH_SK_ETH795/production/_ext/1954962658/SNTP.o
 .mdebug.abi32  0xa0000218        0x0 build/XC32-PIC32_ETH_SK_ETH795/production/_ext/1954962658/SPIEEPROM.o
 .mdebug.abi32  0xa0000218        0x0 build/XC32-PIC32_ETH_SK_ETH795/production/_ext/1954962658/SPIFlash.o
 .mdebug.abi32  0xa0000218        0x0 build/XC32-PIC32_ETH_SK_ETH795/production/_ext/1954962658/SPIRAM.o
 .mdebug.abi32  0xa0000218        0x0 build/XC32-PIC32_ETH_SK_ETH795/production/_ext/1954962658/SSL.o
 .mdebug.abi32  0xa0000218        0x0 build/XC32-PIC32_ETH_SK_ETH795/production/_ext/1954962658/StackTsk.o
 .mdebug.abi32  0xa0000218        0x0 build/XC32-PIC32_ETH_SK_ETH795/production/_ext/1954962658/TCP.o
 .mdebug.abi32  0xa0000218        0x0 build/XC32-PIC32_ETH_SK_ETH795/production/_ext/1954962658/TCPPerformanceTest.o
 .mdebug.abi32  0xa0000218        0x0 build/XC32-PIC32_ETH_SK_ETH795/production/_ext/1954962658/TFTPc.o
 .mdebug.abi32  0xa0000218        0x0 build/XC32-PIC32_ETH_SK_ETH795/production/_ext/1954962658/Telnet.o
 .mdebug.abi32  0xa0000218        0x0 build/XC32-PIC32_ETH_SK_ETH795/production/_ext/1954962658/Tick.o
 .mdebug.abi32  0xa0000218        0x0 build/XC32-PIC32_ETH_SK_ETH795/production/_ext/1954962658/UART.o
 .mdebug.abi32  0xa0000218        0x0 build/XC32-PIC32_ETH_SK_ETH795/production/_ext/1954962658/UART2TCPBridge.o
 .mdebug.abi32  0xa0000218        0x0 build/XC32-PIC32_ETH_SK_ETH795/production/_ext/1954962658/UDP.o
 .mdebug.abi32  0xa0000218        0x0 build/XC32-PIC32_ETH_SK_ETH795/production/_ext/1954962658/UDPPerformanceTest.o
 .mdebug.abi32  0xa0000218        0x0 build/XC32-PIC32_ETH_SK_ETH795/production/_ext/1954962658/ZeroconfHelper.o
 .mdebug.abi32  0xa0000218        0x0 build/XC32-PIC32_ETH_SK_ETH795/production/_ext/1954962658/ZeroconfLinkLocal.o
 .mdebug.abi32  0xa0000218        0x0 build/XC32-PIC32_ETH_SK_ETH795/production/_ext/1954962658/ZeroconfMulticastDNS.o
 .mdebug.abi32  0xa0000218        0x0 build/XC32-PIC32_ETH_SK_ETH795/production/_ext/1472/MainDemo.o
 .mdebug.abi32  0xa0000218        0x0 c:/program files (x86)/microchip/xc32/v1.34/bin/bin/../../lib/gcc/pic32mx/4.5.2/../../../../pic32mx/lib\libmchp_peripheral.a(read_core_timer_lib.o)
 .mdebug.abi32  0xa0000218        0x0 c:/program files (x86)/microchip/xc32/v1.34/bin/bin/../../lib/gcc/pic32mx/4.5.2/../../../../pic32mx/lib\libmchp_peripheral_32MX795F512L.a(eth_ack_packet_lib.o)
 .mdebug.abi32  0xa0000218        0x0 c:/program files (x86)/microchip/xc32/v1.34/bin/bin/../../lib/gcc/pic32mx/4.5.2/../../../../pic32mx/lib\libmchp_peripheral_32MX795F512L.a(eth_descriptors_add_lib.o)
 .mdebug.abi32  0xa0000218        0x0 c:/program files (x86)/microchip/xc32/v1.34/bin/bin/../../lib/gcc/pic32mx/4.5.2/../../../../pic32mx/lib\libmchp_peripheral_32MX795F512L.a(eth_init_lib.o)
 .mdebug.abi32  0xa0000218        0x0 c:/program files (x86)/microchip/xc32/v1.34/bin/bin/../../lib/gcc/pic32mx/4.5.2/../../../../pic32mx/lib\libmchp_peripheral_32MX795F512L.a(eth_mac_open_lib.o)
 .mdebug.abi32  0xa0000218        0x0 c:/program files (x86)/microchip/xc32/v1.34/bin/bin/../../lib/gcc/pic32mx/4.5.2/../../../../pic32mx/lib\libmchp_peripheral_32MX795F512L.a(eth_mac_set_address_max_lib.o)
 .mdebug.abi32  0xa0000218        0x0 c:/program files (x86)/microchip/xc32/v1.34/bin/bin/../../lib/gcc/pic32mx/4.5.2/../../../../pic32mx/lib\libmchp_peripheral_32MX795F512L.a(eth_rx_buffers_append_lib.o)
 .mdebug.abi32  0xa0000218        0x0 c:/program files (x86)/microchip/xc32/v1.34/bin/bin/../../lib/gcc/pic32mx/4.5.2/../../../../pic32mx/lib\libmchp_peripheral_32MX795F512L.a(eth_rx_filters_lib.o)
 .mdebug.abi32  0xa0000218        0x0 c:/program files (x86)/microchip/xc32/v1.34/bin/bin/../../lib/gcc/pic32mx/4.5.2/../../../../pic32mx/lib\libmchp_peripheral_32MX795F512L.a(eth_rx_get_packet_lib.o)
 .mdebug.abi32  0xa0000218        0x0 c:/program files (x86)/microchip/xc32/v1.34/bin/bin/../../lib/gcc/pic32mx/4.5.2/../../../../pic32mx/lib\libmchp_peripheral_32MX795F512L.a(eth_rx_set_buffer_size_lib.o)
 .mdebug.abi32  0xa0000218        0x0 c:/program files (x86)/microchip/xc32/v1.34/bin/bin/../../lib/gcc/pic32mx/4.5.2/../../../../pic32mx/lib\libmchp_peripheral_32MX795F512L.a(eth_tx_packet_lib.o)
 .mdebug.abi32  0xa0000218        0x0 c:/program files (x86)/microchip/xc32/v1.34/bin/bin/../../lib/gcc/pic32mx/4.5.2/../../../../pic32mx/lib\libmchp_peripheral_32MX795F512L.a(_eth_append_busy_list_lib.o)
 .mdebug.abi32  0xa0000218        0x0 c:/program files (x86)/microchip/xc32/v1.34/bin/bin/../../lib/gcc/pic32mx/4.5.2/../../../../pic32mx/lib\libmchp_peripheral_32MX795F512L.a(eth_miim_access.o)
 .mdebug.abi32  0xa0000218        0x0 c:/program files (x86)/microchip/xc32/v1.34/bin/bin/../../lib/gcc/pic32mx/4.5.2/../../../../pic32mx/lib\libmchp_peripheral_32MX795F512L.a(pcache.o)
 .mdebug.abi32  0xa0000218        0x0 c:/program files (x86)/microchip/xc32/v1.34/bin/bin/../../lib/gcc/pic32mx/4.5.2/../../../../pic32mx/lib\libmchp_peripheral_32MX795F512L.a(int_disable_interrupts_lib.o)
 .mdebug.abi32  0xa0000218        0x0 c:/program files (x86)/microchip/xc32/v1.34/bin/bin/../../lib/gcc/pic32mx/4.5.2/../../../../pic32mx/lib\libmchp_peripheral_32MX795F512L.a(int_restore_interrupts_lib.o)
 .mdebug.abi32  0xa0000218        0x0 c:/program files (x86)/microchip/xc32/v1.34/bin/bin/../../lib/gcc/pic32mx/4.5.2/../../../../pic32mx/lib\libmchp_peripheral_32MX795F512L.a(int_enable_mv_int_lib.o)
 .mdebug.abi32  0xa0000218        0x0 c:/program files (x86)/microchip/xc32/v1.34/bin/bin/../../lib/gcc/pic32mx/4.5.2/../../../../pic32mx/lib\libmchp_peripheral_32MX795F512L.a(int_tbl_lib.o)
 .mdebug.abi32  0xa0000218        0x0 c:/program files (x86)/microchip/xc32/v1.34/bin/bin/../../lib/gcc/pic32mx/4.5.2/../../../../pic32mx/lib\libmchp_peripheral_32MX795F512L.a(port_set_pins_digital_in_lib.o)
 .mdebug.abi32  0xa0000218        0x0 c:/program files (x86)/microchip/xc32/v1.34/bin/bin/../../lib/gcc/pic32mx/4.5.2/../../../../pic32mx/lib\libmchp_peripheral_32MX795F512L.a(port_set_pins_digital_out_lib.o)
 .mdebug.abi32  0xa0000218        0x0 c:/program files (x86)/microchip/xc32/v1.34/bin/bin/../../lib/gcc/pic32mx/4.5.2/../../../../pic32mx/lib\libmchp_peripheral_32MX795F512L.a(_ports_tbl_libp.o)
 .mdebug.abi32  0xa0000218        0x0 c:/program files (x86)/microchip/xc32/v1.34/bin/bin/../../lib/gcc/pic32mx/4.5.2/../../../../pic32mx/lib\libmchp_peripheral_32MX795F512L.a(int_enable_interrupts_lib.o)
 .mdebug.abi32  0xa0000218        0x0 c:/program files (x86)/microchip/xc32/v1.34/bin/bin/../../lib/gcc/pic32mx/4.5.2\libgcc.a(_udivdi3.o)
 .mdebug.abi32  0xa0000218        0x0 c:/program files (x86)/microchip/xc32/v1.34/bin/bin/../../lib/gcc/pic32mx/4.5.2\libgcc.a(_umoddi3.o)
 .mdebug.abi32  0xa0000218        0x0 c:/program files (x86)/microchip/xc32/v1.34/bin/bin/../../lib/gcc/pic32mx/4.5.2/../../../../pic32mx/lib\libpic32.a(default-bootstrap-exception-handler.o)
 .mdebug.abi32  0xa0000218        0x0 c:/program files (x86)/microchip/xc32/v1.34/bin/bin/../../lib/gcc/pic32mx/4.5.2/../../../../pic32mx/lib\libpic32.a(default-on-reset.o)
 .mdebug.abi32  0xa0000218        0x0 c:/program files (x86)/microchip/xc32/v1.34/bin/bin/../../lib/gcc/pic32mx/4.5.2/../../../../pic32mx/lib\libpic32.a(default-on-bootstrap.o)
 .mdebug.abi32  0xa0000218        0x0 c:/program files (x86)/microchip/xc32/v1.34/bin/bin/../../lib/gcc/pic32mx/4.5.2/../../../../pic32mx/lib\libpic32.a(defaultinterrupt.o)
 .mdebug.abi32  0xa0000218        0x0 c:/program files (x86)/microchip/xc32/v1.34/bin/bin/../../lib/gcc/pic32mx/4.5.2/../../../../pic32mx/lib\libc.a(calloc.o)
 .mdebug.abi32  0xa0000218        0x0 c:/program files (x86)/microchip/xc32/v1.34/bin/bin/../../lib/gcc/pic32mx/4.5.2/../../../../pic32mx/lib\libc.a(malloc.o)
 .mdebug.abi32  0xa0000218        0x0 c:/program files (x86)/microchip/xc32/v1.34/bin/bin/../../lib/gcc/pic32mx/4.5.2/../../../../pic32mx/lib\libc.a(strncpy.o)
 .mdebug.abi32  0xa0000218        0x0 c:/program files (x86)/microchip/xc32/v1.34/bin/bin/../../lib/gcc/pic32mx/4.5.2/../../../../pic32mx/lib\libpic32.a(sbrk.o)
 .mdebug.abi32  0xa0000218        0x0 c:/program files (x86)/microchip/xc32/v1.34/bin/bin/../../lib/gcc/pic32mx/4.5.2/../../../../pic32mx/lib\libpic32.a(errno.o)

.mdebug.abiN32
 *(.mdebug.abiN32)

.mdebug.abi64
 *(.mdebug.abi64)

.mdebug.abiO64
 *(.mdebug.abiO64)

.mdebug.eabi32
 *(.mdebug.eabi32)

.mdebug.eabi64
 *(.mdebug.eabi64)

.gcc_compiled_long32
 *(.gcc_compiled_long32)

.gcc_compiled_long64
 *(.gcc_compiled_long64)

.stab
 *(.stab)

.stabstr
 *(.stabstr)

.stab.excl
 *(.stab.excl)

.stab.exclstr
 *(.stab.exclstr)

.stab.index
 *(.stab.index)

.stab.indexstr
 *(.stab.indexstr)

.comment        0x00000000      0x10c
 *(.comment)
 .comment       0x00000000       0x3c build/XC32-PIC32_ETH_SK_ETH795/production/_ext/1954962658/ARCFOUR.o
                                 0x3d (size before relaxing)
 .comment       0x00000000       0x3d build/XC32-PIC32_ETH_SK_ETH795/production/_ext/1954962658/ARP.o
 .comment       0x00000000       0x3d build/XC32-PIC32_ETH_SK_ETH795/production/_ext/1954962658/Announce.o
 .comment       0x00000000       0x3d build/XC32-PIC32_ETH_SK_ETH795/production/_ext/1954962658/AutoIP.o
 .comment       0x00000000       0x3d build/XC32-PIC32_ETH_SK_ETH795/production/_ext/1954962658/BerkeleyAPI.o
 .comment       0x00000000       0x3d build/XC32-PIC32_ETH_SK_ETH795/production/_ext/1954962658/BigInt.o
 .comment       0x00000000       0x3d build/XC32-PIC32_ETH_SK_ETH795/production/_ext/1954962658/DHCP.o
 .comment       0x00000000       0x3d build/XC32-PIC32_ETH_SK_ETH795/production/_ext/1954962658/DHCPs.o
 .comment       0x00000000       0x3d build/XC32-PIC32_ETH_SK_ETH795/production/_ext/1954962658/DNS.o
 .comment       0x00000000       0x3d build/XC32-PIC32_ETH_SK_ETH795/production/_ext/1954962658/DNSs.o
 .comment       0x00000000       0x3d build/XC32-PIC32_ETH_SK_ETH795/production/_ext/1954962658/Delay.o
 .comment       0x00000000       0x3d build/XC32-PIC32_ETH_SK_ETH795/production/_ext/1954962658/DynDNS.o
 .comment       0x00000000       0x3d build/XC32-PIC32_ETH_SK_ETH795/production/_ext/1954962658/ENC28J60.o
 .comment       0x00000000       0x3d build/XC32-PIC32_ETH_SK_ETH795/production/_ext/1954962658/ENCX24J600.o
 .comment       0x00000000       0x3d build/XC32-PIC32_ETH_SK_ETH795/production/_ext/1954962658/ETHPIC32ExtPhy.o
 .comment       0x00000000       0x3d build/XC32-PIC32_ETH_SK_ETH795/production/_ext/1954962658/ETHPIC32ExtPhyDP83848.o
 .comment       0x00000000       0x3d build/XC32-PIC32_ETH_SK_ETH795/production/_ext/1954962658/ETHPIC32IntMac.o
 .comment       0x00000000       0x3d build/XC32-PIC32_ETH_SK_ETH795/production/_ext/1954962658/FTP.o
 .comment       0x00000000       0x3d build/XC32-PIC32_ETH_SK_ETH795/production/_ext/1954962658/FileSystem.o
 .comment       0x00000000       0x3d build/XC32-PIC32_ETH_SK_ETH795/production/_ext/1954962658/HTTP2.o
 .comment       0x00000000       0x3d build/XC32-PIC32_ETH_SK_ETH795/production/_ext/1954962658/Hashes.o
 .comment       0x00000000       0x3d build/XC32-PIC32_ETH_SK_ETH795/production/_ext/1954962658/Helpers.o
 .comment       0x00000000       0x3d build/XC32-PIC32_ETH_SK_ETH795/production/_ext/1954962658/ICMP.o
 .comment       0x00000000       0x3d build/XC32-PIC32_ETH_SK_ETH795/production/_ext/1954962658/IP.o
 .comment       0x00000000       0x3d build/XC32-PIC32_ETH_SK_ETH795/production/_ext/1954962658/LCDBlocking.o
 .comment       0x00000000       0x3d build/XC32-PIC32_ETH_SK_ETH795/production/_ext/1954962658/MPFS2.o
 .comment       0x00000000       0x3d build/XC32-PIC32_ETH_SK_ETH795/production/_ext/1954962658/NBNS.o
 .comment       0x00000000       0x3d build/XC32-PIC32_ETH_SK_ETH795/production/_ext/1954962658/RSA.o
 .comment       0x00000000       0x3d build/XC32-PIC32_ETH_SK_ETH795/production/_ext/1954962658/Random.o
 .comment       0x00000000       0x3d build/XC32-PIC32_ETH_SK_ETH795/production/_ext/1954962658/Reboot.o
 .comment       0x00000000       0x3d build/XC32-PIC32_ETH_SK_ETH795/production/_ext/1954962658/SMTP.o
 .comment       0x00000000       0x3d build/XC32-PIC32_ETH_SK_ETH795/production/_ext/1954962658/SNMP.o
 .comment       0x00000000       0x3d build/XC32-PIC32_ETH_SK_ETH795/production/_ext/1954962658/SNMPv3.o
 .comment       0x00000000       0x3d build/XC32-PIC32_ETH_SK_ETH795/production/_ext/1954962658/SNMPv3USM.o
 .comment       0x00000000       0x3d build/XC32-PIC32_ETH_SK_ETH795/production/_ext/1954962658/SNTP.o
 .comment       0x00000000       0x3d build/XC32-PIC32_ETH_SK_ETH795/production/_ext/1954962658/SPIEEPROM.o
 .comment       0x00000000       0x3d build/XC32-PIC32_ETH_SK_ETH795/production/_ext/1954962658/SPIFlash.o
 .comment       0x00000000       0x3d build/XC32-PIC32_ETH_SK_ETH795/production/_ext/1954962658/SPIRAM.o
 .comment       0x00000000       0x3d build/XC32-PIC32_ETH_SK_ETH795/production/_ext/1954962658/SSL.o
 .comment       0x00000000       0x3d build/XC32-PIC32_ETH_SK_ETH795/production/_ext/1954962658/StackTsk.o
 .comment       0x00000000       0x3d build/XC32-PIC32_ETH_SK_ETH795/production/_ext/1954962658/TCP.o
 .comment       0x00000000       0x3d build/XC32-PIC32_ETH_SK_ETH795/production/_ext/1954962658/TCPPerformanceTest.o
 .comment       0x00000000       0x3d build/XC32-PIC32_ETH_SK_ETH795/production/_ext/1954962658/TFTPc.o
 .comment       0x00000000       0x3d build/XC32-PIC32_ETH_SK_ETH795/production/_ext/1954962658/Telnet.o
 .comment       0x00000000       0x3d build/XC32-PIC32_ETH_SK_ETH795/production/_ext/1954962658/Tick.o
 .comment       0x00000000       0x3d build/XC32-PIC32_ETH_SK_ETH795/production/_ext/1954962658/UART.o
 .comment       0x00000000       0x3d build/XC32-PIC32_ETH_SK_ETH795/production/_ext/1954962658/UART2TCPBridge.o
 .comment       0x00000000       0x3d build/XC32-PIC32_ETH_SK_ETH795/production/_ext/1954962658/UDP.o
 .comment       0x00000000       0x3d build/XC32-PIC32_ETH_SK_ETH795/production/_ext/1954962658/UDPPerformanceTest.o
 .comment       0x00000000       0x3d build/XC32-PIC32_ETH_SK_ETH795/production/_ext/1954962658/ZeroconfHelper.o
 .comment       0x00000000       0x3d build/XC32-PIC32_ETH_SK_ETH795/production/_ext/1954962658/ZeroconfLinkLocal.o
 .comment       0x00000000       0x3d build/XC32-PIC32_ETH_SK_ETH795/production/_ext/1954962658/ZeroconfMulticastDNS.o
 .comment       0x00000000       0x3d build/XC32-PIC32_ETH_SK_ETH795/production/_ext/1472/MainDemo.o
 .comment       0x0000003c       0x3c c:/program files (x86)/microchip/xc32/v1.34/bin/bin/../../lib/gcc/pic32mx/4.5.2/../../../../pic32mx/lib\libmchp_peripheral.a(read_core_timer_lib.o)
                                 0x3d (size before relaxing)
 .comment       0x00000000       0x3d c:/program files (x86)/microchip/xc32/v1.34/bin/bin/../../lib/gcc/pic32mx/4.5.2/../../../../pic32mx/lib\libmchp_peripheral_32MX795F512L.a(eth_ack_packet_lib.o)
 .comment       0x00000000       0x3d c:/program files (x86)/microchip/xc32/v1.34/bin/bin/../../lib/gcc/pic32mx/4.5.2/../../../../pic32mx/lib\libmchp_peripheral_32MX795F512L.a(eth_descriptors_add_lib.o)
 .comment       0x00000000       0x3d c:/program files (x86)/microchip/xc32/v1.34/bin/bin/../../lib/gcc/pic32mx/4.5.2/../../../../pic32mx/lib\libmchp_peripheral_32MX795F512L.a(eth_init_lib.o)
 .comment       0x00000000       0x3d c:/program files (x86)/microchip/xc32/v1.34/bin/bin/../../lib/gcc/pic32mx/4.5.2/../../../../pic32mx/lib\libmchp_peripheral_32MX795F512L.a(eth_mac_open_lib.o)
 .comment       0x00000000       0x3d c:/program files (x86)/microchip/xc32/v1.34/bin/bin/../../lib/gcc/pic32mx/4.5.2/../../../../pic32mx/lib\libmchp_peripheral_32MX795F512L.a(eth_mac_set_address_max_lib.o)
 .comment       0x00000000       0x3d c:/program files (x86)/microchip/xc32/v1.34/bin/bin/../../lib/gcc/pic32mx/4.5.2/../../../../pic32mx/lib\libmchp_peripheral_32MX795F512L.a(eth_rx_buffers_append_lib.o)
 .comment       0x00000000       0x3d c:/program files (x86)/microchip/xc32/v1.34/bin/bin/../../lib/gcc/pic32mx/4.5.2/../../../../pic32mx/lib\libmchp_peripheral_32MX795F512L.a(eth_rx_filters_lib.o)
 .comment       0x00000000       0x3d c:/program files (x86)/microchip/xc32/v1.34/bin/bin/../../lib/gcc/pic32mx/4.5.2/../../../../pic32mx/lib\libmchp_peripheral_32MX795F512L.a(eth_rx_get_packet_lib.o)
 .comment       0x00000000       0x3d c:/program files (x86)/microchip/xc32/v1.34/bin/bin/../../lib/gcc/pic32mx/4.5.2/../../../../pic32mx/lib\libmchp_peripheral_32MX795F512L.a(eth_rx_set_buffer_size_lib.o)
 .comment       0x00000000       0x3d c:/program files (x86)/microchip/xc32/v1.34/bin/bin/../../lib/gcc/pic32mx/4.5.2/../../../../pic32mx/lib\libmchp_peripheral_32MX795F512L.a(eth_tx_packet_lib.o)
 .comment       0x00000000       0x3d c:/program files (x86)/microchip/xc32/v1.34/bin/bin/../../lib/gcc/pic32mx/4.5.2/../../../../pic32mx/lib\libmchp_peripheral_32MX795F512L.a(_eth_append_busy_list_lib.o)
 .comment       0x00000000       0x3d c:/program files (x86)/microchip/xc32/v1.34/bin/bin/../../lib/gcc/pic32mx/4.5.2/../../../../pic32mx/lib\libmchp_peripheral_32MX795F512L.a(eth_miim_access.o)
 .comment       0x00000000       0x3d c:/program files (x86)/microchip/xc32/v1.34/bin/bin/../../lib/gcc/pic32mx/4.5.2/../../../../pic32mx/lib\libmchp_peripheral_32MX795F512L.a(pcache.o)
 .comment       0x00000000       0x3d c:/program files (x86)/microchip/xc32/v1.34/bin/bin/../../lib/gcc/pic32mx/4.5.2/../../../../pic32mx/lib\libmchp_peripheral_32MX795F512L.a(int_disable_interrupts_lib.o)
 .comment       0x00000000       0x3d c:/program files (x86)/microchip/xc32/v1.34/bin/bin/../../lib/gcc/pic32mx/4.5.2/../../../../pic32mx/lib\libmchp_peripheral_32MX795F512L.a(int_restore_interrupts_lib.o)
 .comment       0x00000000       0x3d c:/program files (x86)/microchip/xc32/v1.34/bin/bin/../../lib/gcc/pic32mx/4.5.2/../../../../pic32mx/lib\libmchp_peripheral_32MX795F512L.a(int_enable_mv_int_lib.o)
 .comment       0x00000000       0x3d c:/program files (x86)/microchip/xc32/v1.34/bin/bin/../../lib/gcc/pic32mx/4.5.2/../../../../pic32mx/lib\libmchp_peripheral_32MX795F512L.a(int_tbl_lib.o)
 .comment       0x00000000       0x3d c:/program files (x86)/microchip/xc32/v1.34/bin/bin/../../lib/gcc/pic32mx/4.5.2/../../../../pic32mx/lib\libmchp_peripheral_32MX795F512L.a(port_set_pins_digital_in_lib.o)
 .comment       0x00000000       0x3d c:/program files (x86)/microchip/xc32/v1.34/bin/bin/../../lib/gcc/pic32mx/4.5.2/../../../../pic32mx/lib\libmchp_peripheral_32MX795F512L.a(port_set_pins_digital_out_lib.o)
 .comment       0x00000000       0x3d c:/program files (x86)/microchip/xc32/v1.34/bin/bin/../../lib/gcc/pic32mx/4.5.2/../../../../pic32mx/lib\libmchp_peripheral_32MX795F512L.a(_ports_tbl_libp.o)
 .comment       0x00000000       0x3d c:/program files (x86)/microchip/xc32/v1.34/bin/bin/../../lib/gcc/pic32mx/4.5.2/../../../../pic32mx/lib\libmchp_peripheral_32MX795F512L.a(int_enable_interrupts_lib.o)
 .comment       0x00000000       0x3d c:/program files (x86)/microchip/xc32/v1.34/bin/bin/../../lib/gcc/pic32mx/4.5.2\libgcc.a(_udivdi3.o)
 .comment       0x00000000       0x3d c:/program files (x86)/microchip/xc32/v1.34/bin/bin/../../lib/gcc/pic32mx/4.5.2\libgcc.a(_umoddi3.o)
 .comment       0x00000078       0x18 c:/program files (x86)/microchip/xc32/v1.34/bin/bin/../../lib/gcc/pic32mx/4.5.2/../../../../pic32mx/lib\libpic32.a(memcmp.o)
                                 0x19 (size before relaxing)
 .comment       0x00000090       0x18 c:/program files (x86)/microchip/xc32/v1.34/bin/bin/../../lib/gcc/pic32mx/4.5.2/../../../../pic32mx/lib\libpic32.a(memset.o)
                                 0x19 (size before relaxing)
 .comment       0x000000a8       0x19 c:/program files (x86)/microchip/xc32/v1.34/bin/bin/../../lib/gcc/pic32mx/4.5.2/../../../../pic32mx/lib\libpic32.a(strlen.o)
                                 0x1a (size before relaxing)
 .comment       0x00000000       0x3d c:/program files (x86)/microchip/xc32/v1.34/bin/bin/../../lib/gcc/pic32mx/4.5.2/../../../../pic32mx/lib\libpic32.a(default-bootstrap-exception-handler.o)
 .comment       0x00000000       0x3d c:/program files (x86)/microchip/xc32/v1.34/bin/bin/../../lib/gcc/pic32mx/4.5.2/../../../../pic32mx/lib\libpic32.a(default-on-reset.o)
 .comment       0x00000000       0x3d c:/program files (x86)/microchip/xc32/v1.34/bin/bin/../../lib/gcc/pic32mx/4.5.2/../../../../pic32mx/lib\libpic32.a(default-on-bootstrap.o)
 .comment       0x00000000       0x3d c:/program files (x86)/microchip/xc32/v1.34/bin/bin/../../lib/gcc/pic32mx/4.5.2/../../../../pic32mx/lib\libpic32.a(defaultinterrupt.o)
 .comment       0x00000000       0x3d c:/program files (x86)/microchip/xc32/v1.34/bin/bin/../../lib/gcc/pic32mx/4.5.2/../../../../pic32mx/lib\libc.a(calloc.o)
 .comment       0x00000000       0x3d c:/program files (x86)/microchip/xc32/v1.34/bin/bin/../../lib/gcc/pic32mx/4.5.2/../../../../pic32mx/lib\libc.a(malloc.o)
 .comment       0x00000000       0x3d c:/program files (x86)/microchip/xc32/v1.34/bin/bin/../../lib/gcc/pic32mx/4.5.2/../../../../pic32mx/lib\libc.a(strncpy.o)
 .comment       0x000000c1       0x4b c:/program files (x86)/microchip/xc32/v1.34/bin/bin/../../lib/gcc/pic32mx/4.5.2/../../../../pic32mx/lib\libpic32.a(sbrk.o)
                                 0x88 (size before relaxing)
 .comment       0x00000000       0x3d c:/program files (x86)/microchip/xc32/v1.34/bin/bin/../../lib/gcc/pic32mx/4.5.2/../../../../pic32mx/lib\libpic32.a(errno.o)

.debug
 *(.debug)

.line
 *(.line)

.debug_srcinfo
 *(.debug_srcinfo)

.debug_sfnames
 *(.debug_sfnames)

.debug_aranges  0x00000000      0x6b8
 *(.debug_aranges)
 .debug_aranges
                0x00000000       0x20 build/XC32-PIC32_ETH_SK_ETH795/production/_ext/1954962658/ARP.o
 .debug_aranges
                0x00000020       0x20 build/XC32-PIC32_ETH_SK_ETH795/production/_ext/1954962658/DHCP.o
 .debug_aranges
                0x00000040       0x20 build/XC32-PIC32_ETH_SK_ETH795/production/_ext/1954962658/Delay.o
 .debug_aranges
                0x00000060       0x20 build/XC32-PIC32_ETH_SK_ETH795/production/_ext/1954962658/ETHPIC32ExtPhy.o
 .debug_aranges
                0x00000080       0x20 build/XC32-PIC32_ETH_SK_ETH795/production/_ext/1954962658/ETHPIC32ExtPhyDP83848.o
 .debug_aranges
                0x000000a0       0x20 build/XC32-PIC32_ETH_SK_ETH795/production/_ext/1954962658/ETHPIC32IntMac.o
 .debug_aranges
                0x000000c0       0x20 build/XC32-PIC32_ETH_SK_ETH795/production/_ext/1954962658/Helpers.o
 .debug_aranges
                0x000000e0       0x20 build/XC32-PIC32_ETH_SK_ETH795/production/_ext/1954962658/ICMP.o
 .debug_aranges
                0x00000100       0x20 build/XC32-PIC32_ETH_SK_ETH795/production/_ext/1954962658/IP.o
 .debug_aranges
                0x00000120       0x20 build/XC32-PIC32_ETH_SK_ETH795/production/_ext/1954962658/StackTsk.o
 .debug_aranges
                0x00000140       0x20 build/XC32-PIC32_ETH_SK_ETH795/production/_ext/1954962658/Tick.o
 .debug_aranges
                0x00000160       0x20 build/XC32-PIC32_ETH_SK_ETH795/production/_ext/1954962658/UDP.o
 .debug_aranges
                0x00000180       0x20 build/XC32-PIC32_ETH_SK_ETH795/production/_ext/1472/MainDemo.o
 .debug_aranges
                0x000001a0       0x20 c:/program files (x86)/microchip/xc32/v1.34/bin/bin/../../lib/gcc/pic32mx/4.5.2/../../../../pic32mx/lib\libmchp_peripheral.a(read_core_timer_lib.o)
 .debug_aranges
                0x000001c0       0x48 c:/program files (x86)/microchip/xc32/v1.34/bin/bin/../../lib/gcc/pic32mx/4.5.2/../../../../pic32mx/lib\libmchp_peripheral_32MX795F512L.a(eth_ack_packet_lib.o)
 .debug_aranges
                0x00000208       0x28 c:/program files (x86)/microchip/xc32/v1.34/bin/bin/../../lib/gcc/pic32mx/4.5.2/../../../../pic32mx/lib\libmchp_peripheral_32MX795F512L.a(eth_descriptors_add_lib.o)
 .debug_aranges
                0x00000230       0x20 c:/program files (x86)/microchip/xc32/v1.34/bin/bin/../../lib/gcc/pic32mx/4.5.2/../../../../pic32mx/lib\libmchp_peripheral_32MX795F512L.a(eth_init_lib.o)
 .debug_aranges
                0x00000250       0x20 c:/program files (x86)/microchip/xc32/v1.34/bin/bin/../../lib/gcc/pic32mx/4.5.2/../../../../pic32mx/lib\libmchp_peripheral_32MX795F512L.a(eth_mac_open_lib.o)
 .debug_aranges
                0x00000270       0x30 c:/program files (x86)/microchip/xc32/v1.34/bin/bin/../../lib/gcc/pic32mx/4.5.2/../../../../pic32mx/lib\libmchp_peripheral_32MX795F512L.a(eth_mac_set_address_max_lib.o)
 .debug_aranges
                0x000002a0       0x20 c:/program files (x86)/microchip/xc32/v1.34/bin/bin/../../lib/gcc/pic32mx/4.5.2/../../../../pic32mx/lib\libmchp_peripheral_32MX795F512L.a(eth_rx_buffers_append_lib.o)
 .debug_aranges
                0x000002c0       0x48 c:/program files (x86)/microchip/xc32/v1.34/bin/bin/../../lib/gcc/pic32mx/4.5.2/../../../../pic32mx/lib\libmchp_peripheral_32MX795F512L.a(eth_rx_filters_lib.o)
 .debug_aranges
                0x00000308       0x28 c:/program files (x86)/microchip/xc32/v1.34/bin/bin/../../lib/gcc/pic32mx/4.5.2/../../../../pic32mx/lib\libmchp_peripheral_32MX795F512L.a(eth_rx_get_packet_lib.o)
 .debug_aranges
                0x00000330       0x20 c:/program files (x86)/microchip/xc32/v1.34/bin/bin/../../lib/gcc/pic32mx/4.5.2/../../../../pic32mx/lib\libmchp_peripheral_32MX795F512L.a(eth_rx_set_buffer_size_lib.o)
 .debug_aranges
                0x00000350       0x48 c:/program files (x86)/microchip/xc32/v1.34/bin/bin/../../lib/gcc/pic32mx/4.5.2/../../../../pic32mx/lib\libmchp_peripheral_32MX795F512L.a(eth_tx_packet_lib.o)
 .debug_aranges
                0x00000398       0x20 c:/program files (x86)/microchip/xc32/v1.34/bin/bin/../../lib/gcc/pic32mx/4.5.2/../../../../pic32mx/lib\libmchp_peripheral_32MX795F512L.a(_eth_append_busy_list_lib.o)
 .debug_aranges
                0x000003b8       0x48 c:/program files (x86)/microchip/xc32/v1.34/bin/bin/../../lib/gcc/pic32mx/4.5.2/../../../../pic32mx/lib\libmchp_peripheral_32MX795F512L.a(eth_miim_access.o)
 .debug_aranges
                0x00000400       0x28 c:/program files (x86)/microchip/xc32/v1.34/bin/bin/../../lib/gcc/pic32mx/4.5.2/../../../../pic32mx/lib\libmchp_peripheral_32MX795F512L.a(pcache.o)
 .debug_aranges
                0x00000428       0x20 c:/program files (x86)/microchip/xc32/v1.34/bin/bin/../../lib/gcc/pic32mx/4.5.2/../../../../pic32mx/lib\libmchp_peripheral_32MX795F512L.a(int_disable_interrupts_lib.o)
 .debug_aranges
                0x00000448       0x20 c:/program files (x86)/microchip/xc32/v1.34/bin/bin/../../lib/gcc/pic32mx/4.5.2/../../../../pic32mx/lib\libmchp_peripheral_32MX795F512L.a(int_restore_interrupts_lib.o)
 .debug_aranges
                0x00000468       0x20 c:/program files (x86)/microchip/xc32/v1.34/bin/bin/../../lib/gcc/pic32mx/4.5.2/../../../../pic32mx/lib\libmchp_peripheral_32MX795F512L.a(int_enable_mv_int_lib.o)
 .debug_aranges
                0x00000488       0x60 c:/program files (x86)/microchip/xc32/v1.34/bin/bin/../../lib/gcc/pic32mx/4.5.2/../../../../pic32mx/lib\libmchp_peripheral_32MX795F512L.a(int_tbl_lib.o)
 .debug_aranges
                0x000004e8       0x20 c:/program files (x86)/microchip/xc32/v1.34/bin/bin/../../lib/gcc/pic32mx/4.5.2/../../../../pic32mx/lib\libmchp_peripheral_32MX795F512L.a(port_set_pins_digital_in_lib.o)
 .debug_aranges
                0x00000508       0x20 c:/program files (x86)/microchip/xc32/v1.34/bin/bin/../../lib/gcc/pic32mx/4.5.2/../../../../pic32mx/lib\libmchp_peripheral_32MX795F512L.a(port_set_pins_digital_out_lib.o)
 .debug_aranges
                0x00000528       0x20 c:/program files (x86)/microchip/xc32/v1.34/bin/bin/../../lib/gcc/pic32mx/4.5.2/../../../../pic32mx/lib\libmchp_peripheral_32MX795F512L.a(int_enable_interrupts_lib.o)
 .debug_aranges
                0x00000548       0x20 c:/program files (x86)/microchip/xc32/v1.34/bin/bin/../../lib/gcc/pic32mx/4.5.2\libgcc.a(_udivdi3.o)
 .debug_aranges
                0x00000568       0x20 c:/program files (x86)/microchip/xc32/v1.34/bin/bin/../../lib/gcc/pic32mx/4.5.2\libgcc.a(_umoddi3.o)
 .debug_aranges
                0x00000588       0x20 c:/program files (x86)/microchip/xc32/v1.34/bin/bin/../../lib/gcc/pic32mx/4.5.2/../../../../pic32mx/lib\libpic32.a(default-bootstrap-exception-handler.o)
 .debug_aranges
                0x000005a8       0x20 c:/program files (x86)/microchip/xc32/v1.34/bin/bin/../../lib/gcc/pic32mx/4.5.2/../../../../pic32mx/lib\libpic32.a(default-on-reset.o)
 .debug_aranges
                0x000005c8       0x20 c:/program files (x86)/microchip/xc32/v1.34/bin/bin/../../lib/gcc/pic32mx/4.5.2/../../../../pic32mx/lib\libpic32.a(default-on-bootstrap.o)
 .debug_aranges
                0x000005e8       0x20 c:/program files (x86)/microchip/xc32/v1.34/bin/bin/../../lib/gcc/pic32mx/4.5.2/../../../../pic32mx/lib\libpic32.a(defaultinterrupt.o)
 .debug_aranges
                0x00000608       0x20 c:/program files (x86)/microchip/xc32/v1.34/bin/bin/../../lib/gcc/pic32mx/4.5.2/../../../../pic32mx/lib\libc.a(calloc.o)
 .debug_aranges
                0x00000628       0x30 c:/program files (x86)/microchip/xc32/v1.34/bin/bin/../../lib/gcc/pic32mx/4.5.2/../../../../pic32mx/lib\libc.a(malloc.o)
 .debug_aranges
                0x00000658       0x20 c:/program files (x86)/microchip/xc32/v1.34/bin/bin/../../lib/gcc/pic32mx/4.5.2/../../../../pic32mx/lib\libc.a(strncpy.o)
 .debug_aranges
                0x00000678       0x40 c:/program files (x86)/microchip/xc32/v1.34/bin/bin/../../lib/gcc/pic32mx/4.5.2/../../../../pic32mx/lib\libpic32.a(sbrk.o)

.debug_pubnames
                0x00000000     0x106a
 *(.debug_pubnames)
 .debug_pubnames
                0x00000000       0x6f build/XC32-PIC32_ETH_SK_ETH795/production/_ext/1954962658/ARP.o
 .debug_pubnames
                0x0000006f       0xcc build/XC32-PIC32_ETH_SK_ETH795/production/_ext/1954962658/DHCP.o
 .debug_pubnames
                0x0000013b       0x2c build/XC32-PIC32_ETH_SK_ETH795/production/_ext/1954962658/Delay.o
 .debug_pubnames
                0x00000167      0x110 build/XC32-PIC32_ETH_SK_ETH795/production/_ext/1954962658/ETHPIC32ExtPhy.o
 .debug_pubnames
                0x00000277       0x6b build/XC32-PIC32_ETH_SK_ETH795/production/_ext/1954962658/ETHPIC32ExtPhyDP83848.o
 .debug_pubnames
                0x000002e2      0x213 build/XC32-PIC32_ETH_SK_ETH795/production/_ext/1954962658/ETHPIC32IntMac.o
 .debug_pubnames
                0x000004f5      0x10a build/XC32-PIC32_ETH_SK_ETH795/production/_ext/1954962658/Helpers.o
 .debug_pubnames
                0x000005ff       0x22 build/XC32-PIC32_ETH_SK_ETH795/production/_ext/1954962658/ICMP.o
 .debug_pubnames
                0x00000621       0x44 build/XC32-PIC32_ETH_SK_ETH795/production/_ext/1954962658/IP.o
 .debug_pubnames
                0x00000665       0x53 build/XC32-PIC32_ETH_SK_ETH795/production/_ext/1954962658/StackTsk.o
 .debug_pubnames
                0x000006b8       0x2b build/XC32-PIC32_ETH_SK_ETH795/production/_ext/1954962658/TCP.o
 .debug_pubnames
                0x000006e3       0x7e build/XC32-PIC32_ETH_SK_ETH795/production/_ext/1954962658/Tick.o
 .debug_pubnames
                0x00000761      0x155 build/XC32-PIC32_ETH_SK_ETH795/production/_ext/1954962658/UDP.o
 .debug_pubnames
                0x000008b6       0x48 build/XC32-PIC32_ETH_SK_ETH795/production/_ext/1472/MainDemo.o
 .debug_pubnames
                0x000008fe       0x24 c:/program files (x86)/microchip/xc32/v1.34/bin/bin/../../lib/gcc/pic32mx/4.5.2/../../../../pic32mx/lib\libmchp_peripheral.a(read_core_timer_lib.o)
 .debug_pubnames
                0x00000922       0x80 c:/program files (x86)/microchip/xc32/v1.34/bin/bin/../../lib/gcc/pic32mx/4.5.2/../../../../pic32mx/lib\libmchp_peripheral_32MX795F512L.a(eth_ack_packet_lib.o)
 .debug_pubnames
                0x000009a2       0x42 c:/program files (x86)/microchip/xc32/v1.34/bin/bin/../../lib/gcc/pic32mx/4.5.2/../../../../pic32mx/lib\libmchp_peripheral_32MX795F512L.a(eth_descriptors_add_lib.o)
 .debug_pubnames
                0x000009e4       0x1e c:/program files (x86)/microchip/xc32/v1.34/bin/bin/../../lib/gcc/pic32mx/4.5.2/../../../../pic32mx/lib\libmchp_peripheral_32MX795F512L.a(eth_init_lib.o)
 .debug_pubnames
                0x00000a02       0x21 c:/program files (x86)/microchip/xc32/v1.34/bin/bin/../../lib/gcc/pic32mx/4.5.2/../../../../pic32mx/lib\libmchp_peripheral_32MX795F512L.a(eth_mac_open_lib.o)
 .debug_pubnames
                0x00000a23       0x52 c:/program files (x86)/microchip/xc32/v1.34/bin/bin/../../lib/gcc/pic32mx/4.5.2/../../../../pic32mx/lib\libmchp_peripheral_32MX795F512L.a(eth_mac_set_address_max_lib.o)
 .debug_pubnames
                0x00000a75       0x29 c:/program files (x86)/microchip/xc32/v1.34/bin/bin/../../lib/gcc/pic32mx/4.5.2/../../../../pic32mx/lib\libmchp_peripheral_32MX795F512L.a(eth_rx_buffers_append_lib.o)
 .debug_pubnames
                0x00000a9e       0x92 c:/program files (x86)/microchip/xc32/v1.34/bin/bin/../../lib/gcc/pic32mx/4.5.2/../../../../pic32mx/lib\libmchp_peripheral_32MX795F512L.a(eth_rx_filters_lib.o)
 .debug_pubnames
                0x00000b30       0x38 c:/program files (x86)/microchip/xc32/v1.34/bin/bin/../../lib/gcc/pic32mx/4.5.2/../../../../pic32mx/lib\libmchp_peripheral_32MX795F512L.a(eth_rx_get_packet_lib.o)
 .debug_pubnames
                0x00000b68       0x29 c:/program files (x86)/microchip/xc32/v1.34/bin/bin/../../lib/gcc/pic32mx/4.5.2/../../../../pic32mx/lib\libmchp_peripheral_32MX795F512L.a(eth_rx_set_buffer_size_lib.o)
 .debug_pubnames
                0x00000b91       0x66 c:/program files (x86)/microchip/xc32/v1.34/bin/bin/../../lib/gcc/pic32mx/4.5.2/../../../../pic32mx/lib\libmchp_peripheral_32MX795F512L.a(eth_tx_packet_lib.o)
 .debug_pubnames
                0x00000bf7       0x29 c:/program files (x86)/microchip/xc32/v1.34/bin/bin/../../lib/gcc/pic32mx/4.5.2/../../../../pic32mx/lib\libmchp_peripheral_32MX795F512L.a(_eth_append_busy_list_lib.o)
 .debug_pubnames
                0x00000c20       0x90 c:/program files (x86)/microchip/xc32/v1.34/bin/bin/../../lib/gcc/pic32mx/4.5.2/../../../../pic32mx/lib\libmchp_peripheral_32MX795F512L.a(eth_miim_access.o)
 .debug_pubnames
                0x00000cb0       0x3b c:/program files (x86)/microchip/xc32/v1.34/bin/bin/../../lib/gcc/pic32mx/4.5.2/../../../../pic32mx/lib\libmchp_peripheral_32MX795F512L.a(pcache.o)
 .debug_pubnames
                0x00000ceb       0x2b c:/program files (x86)/microchip/xc32/v1.34/bin/bin/../../lib/gcc/pic32mx/4.5.2/../../../../pic32mx/lib\libmchp_peripheral_32MX795F512L.a(int_disable_interrupts_lib.o)
 .debug_pubnames
                0x00000d16       0x2b c:/program files (x86)/microchip/xc32/v1.34/bin/bin/../../lib/gcc/pic32mx/4.5.2/../../../../pic32mx/lib\libmchp_peripheral_32MX795F512L.a(int_restore_interrupts_lib.o)
 .debug_pubnames
                0x00000d41       0x36 c:/program files (x86)/microchip/xc32/v1.34/bin/bin/../../lib/gcc/pic32mx/4.5.2/../../../../pic32mx/lib\libmchp_peripheral_32MX795F512L.a(int_enable_mv_int_lib.o)
 .debug_pubnames
                0x00000d77       0xca c:/program files (x86)/microchip/xc32/v1.34/bin/bin/../../lib/gcc/pic32mx/4.5.2/../../../../pic32mx/lib\libmchp_peripheral_32MX795F512L.a(int_tbl_lib.o)
 .debug_pubnames
                0x00000e41       0x2b c:/program files (x86)/microchip/xc32/v1.34/bin/bin/../../lib/gcc/pic32mx/4.5.2/../../../../pic32mx/lib\libmchp_peripheral_32MX795F512L.a(port_set_pins_digital_in_lib.o)
 .debug_pubnames
                0x00000e6c       0x2c c:/program files (x86)/microchip/xc32/v1.34/bin/bin/../../lib/gcc/pic32mx/4.5.2/../../../../pic32mx/lib\libmchp_peripheral_32MX795F512L.a(port_set_pins_digital_out_lib.o)
 .debug_pubnames
                0x00000e98       0x2a c:/program files (x86)/microchip/xc32/v1.34/bin/bin/../../lib/gcc/pic32mx/4.5.2/../../../../pic32mx/lib\libmchp_peripheral_32MX795F512L.a(int_enable_interrupts_lib.o)
 .debug_pubnames
                0x00000ec2       0x20 c:/program files (x86)/microchip/xc32/v1.34/bin/bin/../../lib/gcc/pic32mx/4.5.2\libgcc.a(_udivdi3.o)
 .debug_pubnames
                0x00000ee2       0x20 c:/program files (x86)/microchip/xc32/v1.34/bin/bin/../../lib/gcc/pic32mx/4.5.2\libgcc.a(_umoddi3.o)
 .debug_pubnames
                0x00000f02       0x33 c:/program files (x86)/microchip/xc32/v1.34/bin/bin/../../lib/gcc/pic32mx/4.5.2/../../../../pic32mx/lib\libpic32.a(default-bootstrap-exception-handler.o)
 .debug_pubnames
                0x00000f35       0x20 c:/program files (x86)/microchip/xc32/v1.34/bin/bin/../../lib/gcc/pic32mx/4.5.2/../../../../pic32mx/lib\libpic32.a(default-on-reset.o)
 .debug_pubnames
                0x00000f55       0x24 c:/program files (x86)/microchip/xc32/v1.34/bin/bin/../../lib/gcc/pic32mx/4.5.2/../../../../pic32mx/lib\libpic32.a(default-on-bootstrap.o)
 .debug_pubnames
                0x00000f79       0x28 c:/program files (x86)/microchip/xc32/v1.34/bin/bin/../../lib/gcc/pic32mx/4.5.2/../../../../pic32mx/lib\libpic32.a(defaultinterrupt.o)
 .debug_pubnames
                0x00000fa1       0x1d c:/program files (x86)/microchip/xc32/v1.34/bin/bin/../../lib/gcc/pic32mx/4.5.2/../../../../pic32mx/lib\libc.a(calloc.o)
 .debug_pubnames
                0x00000fbe       0x32 c:/program files (x86)/microchip/xc32/v1.34/bin/bin/../../lib/gcc/pic32mx/4.5.2/../../../../pic32mx/lib\libc.a(malloc.o)
 .debug_pubnames
                0x00000ff0       0x1e c:/program files (x86)/microchip/xc32/v1.34/bin/bin/../../lib/gcc/pic32mx/4.5.2/../../../../pic32mx/lib\libc.a(strncpy.o)
 .debug_pubnames
                0x0000100e       0x5c c:/program files (x86)/microchip/xc32/v1.34/bin/bin/../../lib/gcc/pic32mx/4.5.2/../../../../pic32mx/lib\libpic32.a(sbrk.o)

.debug_info     0x00000000    0x46e26
 *(.debug_info .gnu.linkonce.wi.*)
 .debug_info    0x00000000     0x116c build/XC32-PIC32_ETH_SK_ETH795/production/_ext/1954962658/ARCFOUR.o
 .debug_info    0x0000116c     0x1b95 build/XC32-PIC32_ETH_SK_ETH795/production/_ext/1954962658/ARP.o
 .debug_info    0x00002d01     0x116d build/XC32-PIC32_ETH_SK_ETH795/production/_ext/1954962658/Announce.o
 .debug_info    0x00003e6e     0x116b build/XC32-PIC32_ETH_SK_ETH795/production/_ext/1954962658/AutoIP.o
 .debug_info    0x00004fd9     0x1170 build/XC32-PIC32_ETH_SK_ETH795/production/_ext/1954962658/BerkeleyAPI.o
 .debug_info    0x00006149     0x116b build/XC32-PIC32_ETH_SK_ETH795/production/_ext/1954962658/BigInt.o
 .debug_info    0x000072b4     0x212e build/XC32-PIC32_ETH_SK_ETH795/production/_ext/1954962658/DHCP.o
 .debug_info    0x000093e2     0x116a build/XC32-PIC32_ETH_SK_ETH795/production/_ext/1954962658/DHCPs.o
 .debug_info    0x0000a54c     0x1168 build/XC32-PIC32_ETH_SK_ETH795/production/_ext/1954962658/DNS.o
 .debug_info    0x0000b6b4     0x1169 build/XC32-PIC32_ETH_SK_ETH795/production/_ext/1954962658/DNSs.o
 .debug_info    0x0000c81d     0x11ff build/XC32-PIC32_ETH_SK_ETH795/production/_ext/1954962658/Delay.o
 .debug_info    0x0000da1c     0x116b build/XC32-PIC32_ETH_SK_ETH795/production/_ext/1954962658/DynDNS.o
 .debug_info    0x0000eb87     0x116d build/XC32-PIC32_ETH_SK_ETH795/production/_ext/1954962658/ENC28J60.o
 .debug_info    0x0000fcf4     0x116f build/XC32-PIC32_ETH_SK_ETH795/production/_ext/1954962658/ENCX24J600.o
 .debug_info    0x00010e63     0x272e build/XC32-PIC32_ETH_SK_ETH795/production/_ext/1954962658/ETHPIC32ExtPhy.o
 .debug_info    0x00013591     0x16ae build/XC32-PIC32_ETH_SK_ETH795/production/_ext/1954962658/ETHPIC32ExtPhyDP83848.o
 .debug_info    0x00014c3f     0x2d20 build/XC32-PIC32_ETH_SK_ETH795/production/_ext/1954962658/ETHPIC32IntMac.o
 .debug_info    0x0001795f     0x1168 build/XC32-PIC32_ETH_SK_ETH795/production/_ext/1954962658/FTP.o
 .debug_info    0x00018ac7     0x116f build/XC32-PIC32_ETH_SK_ETH795/production/_ext/1954962658/FileSystem.o
 .debug_info    0x00019c36     0x116a build/XC32-PIC32_ETH_SK_ETH795/production/_ext/1954962658/HTTP2.o
 .debug_info    0x0001ada0     0x116b build/XC32-PIC32_ETH_SK_ETH795/production/_ext/1954962658/Hashes.o
 .debug_info    0x0001bf0b     0x24af build/XC32-PIC32_ETH_SK_ETH795/production/_ext/1954962658/Helpers.o
 .debug_info    0x0001e3ba     0x175f build/XC32-PIC32_ETH_SK_ETH795/production/_ext/1954962658/ICMP.o
 .debug_info    0x0001fb19     0x1b47 build/XC32-PIC32_ETH_SK_ETH795/production/_ext/1954962658/IP.o
 .debug_info    0x00021660     0x1170 build/XC32-PIC32_ETH_SK_ETH795/production/_ext/1954962658/LCDBlocking.o
 .debug_info    0x000227d0     0x116a build/XC32-PIC32_ETH_SK_ETH795/production/_ext/1954962658/MPFS2.o
 .debug_info    0x0002393a     0x1169 build/XC32-PIC32_ETH_SK_ETH795/production/_ext/1954962658/NBNS.o
 .debug_info    0x00024aa3     0x1168 build/XC32-PIC32_ETH_SK_ETH795/production/_ext/1954962658/RSA.o
 .debug_info    0x00025c0b     0x116b build/XC32-PIC32_ETH_SK_ETH795/production/_ext/1954962658/Random.o
 .debug_info    0x00026d76     0x116b build/XC32-PIC32_ETH_SK_ETH795/production/_ext/1954962658/Reboot.o
 .debug_info    0x00027ee1     0x1169 build/XC32-PIC32_ETH_SK_ETH795/production/_ext/1954962658/SMTP.o
 .debug_info    0x0002904a     0x1169 build/XC32-PIC32_ETH_SK_ETH795/production/_ext/1954962658/SNMP.o
 .debug_info    0x0002a1b3     0x116b build/XC32-PIC32_ETH_SK_ETH795/production/_ext/1954962658/SNMPv3.o
 .debug_info    0x0002b31e     0x116e build/XC32-PIC32_ETH_SK_ETH795/production/_ext/1954962658/SNMPv3USM.o
 .debug_info    0x0002c48c     0x1169 build/XC32-PIC32_ETH_SK_ETH795/production/_ext/1954962658/SNTP.o
 .debug_info    0x0002d5f5     0x116e build/XC32-PIC32_ETH_SK_ETH795/production/_ext/1954962658/SPIEEPROM.o
 .debug_info    0x0002e763     0x116d build/XC32-PIC32_ETH_SK_ETH795/production/_ext/1954962658/SPIFlash.o
 .debug_info    0x0002f8d0     0x116b build/XC32-PIC32_ETH_SK_ETH795/production/_ext/1954962658/SPIRAM.o
 .debug_info    0x00030a3b     0x1168 build/XC32-PIC32_ETH_SK_ETH795/production/_ext/1954962658/SSL.o
 .debug_info    0x00031ba3     0x1a56 build/XC32-PIC32_ETH_SK_ETH795/production/_ext/1954962658/StackTsk.o
 .debug_info    0x000335f9     0x122a build/XC32-PIC32_ETH_SK_ETH795/production/_ext/1954962658/TCP.o
 .debug_info    0x00034823     0x1177 build/XC32-PIC32_ETH_SK_ETH795/production/_ext/1954962658/TCPPerformanceTest.o
 .debug_info    0x0003599a     0x116a build/XC32-PIC32_ETH_SK_ETH795/production/_ext/1954962658/TFTPc.o
 .debug_info    0x00036b04     0x116b build/XC32-PIC32_ETH_SK_ETH795/production/_ext/1954962658/Telnet.o
 .debug_info    0x00037c6f     0x1cbc build/XC32-PIC32_ETH_SK_ETH795/production/_ext/1954962658/Tick.o
 .debug_info    0x0003992b     0x1169 build/XC32-PIC32_ETH_SK_ETH795/production/_ext/1954962658/UART.o
 .debug_info    0x0003aa94     0x1173 build/XC32-PIC32_ETH_SK_ETH795/production/_ext/1954962658/UART2TCPBridge.o
 .debug_info    0x0003bc07     0x21f1 build/XC32-PIC32_ETH_SK_ETH795/production/_ext/1954962658/UDP.o
 .debug_info    0x0003ddf8     0x1177 build/XC32-PIC32_ETH_SK_ETH795/production/_ext/1954962658/UDPPerformanceTest.o
 .debug_info    0x0003ef6f     0x1173 build/XC32-PIC32_ETH_SK_ETH795/production/_ext/1954962658/ZeroconfHelper.o
 .debug_info    0x000400e2     0x1176 build/XC32-PIC32_ETH_SK_ETH795/production/_ext/1954962658/ZeroconfLinkLocal.o
 .debug_info    0x00041258     0x1179 build/XC32-PIC32_ETH_SK_ETH795/production/_ext/1954962658/ZeroconfMulticastDNS.o
 .debug_info    0x000423d1     0x2144 build/XC32-PIC32_ETH_SK_ETH795/production/_ext/1472/MainDemo.o
 .debug_info    0x00044515       0xaa c:/program files (x86)/microchip/xc32/v1.34/bin/bin/../../lib/gcc/pic32mx/4.5.2/../../../../pic32mx/lib\libmchp_peripheral.a(read_core_timer_lib.o)
 .debug_info    0x000445bf      0x16b c:/program files (x86)/microchip/xc32/v1.34/bin/bin/../../lib/gcc/pic32mx/4.5.2/../../../../pic32mx/lib\libmchp_peripheral_32MX795F512L.a(eth_ack_packet_lib.o)
 .debug_info    0x0004472a       0xf2 c:/program files (x86)/microchip/xc32/v1.34/bin/bin/../../lib/gcc/pic32mx/4.5.2/../../../../pic32mx/lib\libmchp_peripheral_32MX795F512L.a(eth_descriptors_add_lib.o)
 .debug_info    0x0004481c       0xbe c:/program files (x86)/microchip/xc32/v1.34/bin/bin/../../lib/gcc/pic32mx/4.5.2/../../../../pic32mx/lib\libmchp_peripheral_32MX795F512L.a(eth_init_lib.o)
 .debug_info    0x000448da       0xa2 c:/program files (x86)/microchip/xc32/v1.34/bin/bin/../../lib/gcc/pic32mx/4.5.2/../../../../pic32mx/lib\libmchp_peripheral_32MX795F512L.a(eth_mac_open_lib.o)
 .debug_info    0x0004497c       0xf2 c:/program files (x86)/microchip/xc32/v1.34/bin/bin/../../lib/gcc/pic32mx/4.5.2/../../../../pic32mx/lib\libmchp_peripheral_32MX795F512L.a(eth_mac_set_address_max_lib.o)
 .debug_info    0x00044a6e       0xe6 c:/program files (x86)/microchip/xc32/v1.34/bin/bin/../../lib/gcc/pic32mx/4.5.2/../../../../pic32mx/lib\libmchp_peripheral_32MX795F512L.a(eth_rx_buffers_append_lib.o)
 .debug_info    0x00044b54      0x147 c:/program files (x86)/microchip/xc32/v1.34/bin/bin/../../lib/gcc/pic32mx/4.5.2/../../../../pic32mx/lib\libmchp_peripheral_32MX795F512L.a(eth_rx_filters_lib.o)
 .debug_info    0x00044c9b       0xc8 c:/program files (x86)/microchip/xc32/v1.34/bin/bin/../../lib/gcc/pic32mx/4.5.2/../../../../pic32mx/lib\libmchp_peripheral_32MX795F512L.a(eth_rx_get_packet_lib.o)
 .debug_info    0x00044d63       0xb4 c:/program files (x86)/microchip/xc32/v1.34/bin/bin/../../lib/gcc/pic32mx/4.5.2/../../../../pic32mx/lib\libmchp_peripheral_32MX795F512L.a(eth_rx_set_buffer_size_lib.o)
 .debug_info    0x00044e17      0x17c c:/program files (x86)/microchip/xc32/v1.34/bin/bin/../../lib/gcc/pic32mx/4.5.2/../../../../pic32mx/lib\libmchp_peripheral_32MX795F512L.a(eth_tx_packet_lib.o)
 .debug_info    0x00044f93       0xd4 c:/program files (x86)/microchip/xc32/v1.34/bin/bin/../../lib/gcc/pic32mx/4.5.2/../../../../pic32mx/lib\libmchp_peripheral_32MX795F512L.a(_eth_append_busy_list_lib.o)
 .debug_info    0x00045067      0x143 c:/program files (x86)/microchip/xc32/v1.34/bin/bin/../../lib/gcc/pic32mx/4.5.2/../../../../pic32mx/lib\libmchp_peripheral_32MX795F512L.a(eth_miim_access.o)
 .debug_info    0x000451aa       0xbf c:/program files (x86)/microchip/xc32/v1.34/bin/bin/../../lib/gcc/pic32mx/4.5.2/../../../../pic32mx/lib\libmchp_peripheral_32MX795F512L.a(pcache.o)
 .debug_info    0x00045269       0xb6 c:/program files (x86)/microchip/xc32/v1.34/bin/bin/../../lib/gcc/pic32mx/4.5.2/../../../../pic32mx/lib\libmchp_peripheral_32MX795F512L.a(int_disable_interrupts_lib.o)
 .debug_info    0x0004531f       0xb6 c:/program files (x86)/microchip/xc32/v1.34/bin/bin/../../lib/gcc/pic32mx/4.5.2/../../../../pic32mx/lib\libmchp_peripheral_32MX795F512L.a(int_restore_interrupts_lib.o)
 .debug_info    0x000453d5       0xbc c:/program files (x86)/microchip/xc32/v1.34/bin/bin/../../lib/gcc/pic32mx/4.5.2/../../../../pic32mx/lib\libmchp_peripheral_32MX795F512L.a(int_enable_mv_int_lib.o)
 .debug_info    0x00045491      0x196 c:/program files (x86)/microchip/xc32/v1.34/bin/bin/../../lib/gcc/pic32mx/4.5.2/../../../../pic32mx/lib\libmchp_peripheral_32MX795F512L.a(int_tbl_lib.o)
 .debug_info    0x00045627       0xba c:/program files (x86)/microchip/xc32/v1.34/bin/bin/../../lib/gcc/pic32mx/4.5.2/../../../../pic32mx/lib\libmchp_peripheral_32MX795F512L.a(port_set_pins_digital_in_lib.o)
 .debug_info    0x000456e1       0xbc c:/program files (x86)/microchip/xc32/v1.34/bin/bin/../../lib/gcc/pic32mx/4.5.2/../../../../pic32mx/lib\libmchp_peripheral_32MX795F512L.a(port_set_pins_digital_out_lib.o)
 .debug_info    0x0004579d        0x0 c:/program files (x86)/microchip/xc32/v1.34/bin/bin/../../lib/gcc/pic32mx/4.5.2/../../../../pic32mx/lib\libmchp_peripheral_32MX795F512L.a(_ports_tbl_libp.o)
 .debug_info    0x0004579d       0xb4 c:/program files (x86)/microchip/xc32/v1.34/bin/bin/../../lib/gcc/pic32mx/4.5.2/../../../../pic32mx/lib\libmchp_peripheral_32MX795F512L.a(int_enable_interrupts_lib.o)
 .debug_info    0x00045851      0x783 c:/program files (x86)/microchip/xc32/v1.34/bin/bin/../../lib/gcc/pic32mx/4.5.2\libgcc.a(_udivdi3.o)
 .debug_info    0x00045fd4      0x7b5 c:/program files (x86)/microchip/xc32/v1.34/bin/bin/../../lib/gcc/pic32mx/4.5.2\libgcc.a(_umoddi3.o)
 .debug_info    0x00046789       0xe2 c:/program files (x86)/microchip/xc32/v1.34/bin/bin/../../lib/gcc/pic32mx/4.5.2/../../../../pic32mx/lib\libpic32.a(default-bootstrap-exception-handler.o)
 .debug_info    0x0004686b       0xbc c:/program files (x86)/microchip/xc32/v1.34/bin/bin/../../lib/gcc/pic32mx/4.5.2/../../../../pic32mx/lib\libpic32.a(default-on-reset.o)
 .debug_info    0x00046927       0xc4 c:/program files (x86)/microchip/xc32/v1.34/bin/bin/../../lib/gcc/pic32mx/4.5.2/../../../../pic32mx/lib\libpic32.a(default-on-bootstrap.o)
 .debug_info    0x000469eb       0xd6 c:/program files (x86)/microchip/xc32/v1.34/bin/bin/../../lib/gcc/pic32mx/4.5.2/../../../../pic32mx/lib\libpic32.a(defaultinterrupt.o)
 .debug_info    0x00046ac1       0xb5 c:/program files (x86)/microchip/xc32/v1.34/bin/bin/../../lib/gcc/pic32mx/4.5.2/../../../../pic32mx/lib\libc.a(calloc.o)
 .debug_info    0x00046b76       0xe4 c:/program files (x86)/microchip/xc32/v1.34/bin/bin/../../lib/gcc/pic32mx/4.5.2/../../../../pic32mx/lib\libc.a(malloc.o)
 .debug_info    0x00046c5a       0xb7 c:/program files (x86)/microchip/xc32/v1.34/bin/bin/../../lib/gcc/pic32mx/4.5.2/../../../../pic32mx/lib\libc.a(strncpy.o)
 .debug_info    0x00046d11      0x115 c:/program files (x86)/microchip/xc32/v1.34/bin/bin/../../lib/gcc/pic32mx/4.5.2/../../../../pic32mx/lib\libpic32.a(sbrk.o)
 .debug_info    0x00046e26        0x0 c:/program files (x86)/microchip/xc32/v1.34/bin/bin/../../lib/gcc/pic32mx/4.5.2/../../../../pic32mx/lib\libpic32.a(errno.o)

.debug_abbrev   0x00000000     0x5fa1
 *(.debug_abbrev)
 .debug_abbrev  0x00000000      0x166 build/XC32-PIC32_ETH_SK_ETH795/production/_ext/1954962658/ARCFOUR.o
 .debug_abbrev  0x00000166      0x275 build/XC32-PIC32_ETH_SK_ETH795/production/_ext/1954962658/ARP.o
 .debug_abbrev  0x000003db      0x166 build/XC32-PIC32_ETH_SK_ETH795/production/_ext/1954962658/Announce.o
 .debug_abbrev  0x00000541      0x166 build/XC32-PIC32_ETH_SK_ETH795/production/_ext/1954962658/AutoIP.o
 .debug_abbrev  0x000006a7      0x166 build/XC32-PIC32_ETH_SK_ETH795/production/_ext/1954962658/BerkeleyAPI.o
 .debug_abbrev  0x0000080d      0x166 build/XC32-PIC32_ETH_SK_ETH795/production/_ext/1954962658/BigInt.o
 .debug_abbrev  0x00000973      0x2bd build/XC32-PIC32_ETH_SK_ETH795/production/_ext/1954962658/DHCP.o
 .debug_abbrev  0x00000c30      0x166 build/XC32-PIC32_ETH_SK_ETH795/production/_ext/1954962658/DHCPs.o
 .debug_abbrev  0x00000d96      0x166 build/XC32-PIC32_ETH_SK_ETH795/production/_ext/1954962658/DNS.o
 .debug_abbrev  0x00000efc      0x166 build/XC32-PIC32_ETH_SK_ETH795/production/_ext/1954962658/DNSs.o
 .debug_abbrev  0x00001062      0x19b build/XC32-PIC32_ETH_SK_ETH795/production/_ext/1954962658/Delay.o
 .debug_abbrev  0x000011fd      0x166 build/XC32-PIC32_ETH_SK_ETH795/production/_ext/1954962658/DynDNS.o
 .debug_abbrev  0x00001363      0x166 build/XC32-PIC32_ETH_SK_ETH795/production/_ext/1954962658/ENC28J60.o
 .debug_abbrev  0x000014c9      0x166 build/XC32-PIC32_ETH_SK_ETH795/production/_ext/1954962658/ENCX24J600.o
 .debug_abbrev  0x0000162f      0x34c build/XC32-PIC32_ETH_SK_ETH795/production/_ext/1954962658/ETHPIC32ExtPhy.o
 .debug_abbrev  0x0000197b      0x1ca build/XC32-PIC32_ETH_SK_ETH795/production/_ext/1954962658/ETHPIC32ExtPhyDP83848.o
 .debug_abbrev  0x00001b45      0x33d build/XC32-PIC32_ETH_SK_ETH795/production/_ext/1954962658/ETHPIC32IntMac.o
 .debug_abbrev  0x00001e82      0x166 build/XC32-PIC32_ETH_SK_ETH795/production/_ext/1954962658/FTP.o
 .debug_abbrev  0x00001fe8      0x166 build/XC32-PIC32_ETH_SK_ETH795/production/_ext/1954962658/FileSystem.o
 .debug_abbrev  0x0000214e      0x166 build/XC32-PIC32_ETH_SK_ETH795/production/_ext/1954962658/HTTP2.o
 .debug_abbrev  0x000022b4      0x166 build/XC32-PIC32_ETH_SK_ETH795/production/_ext/1954962658/Hashes.o
 .debug_abbrev  0x0000241a      0x24c build/XC32-PIC32_ETH_SK_ETH795/production/_ext/1954962658/Helpers.o
 .debug_abbrev  0x00002666      0x1c0 build/XC32-PIC32_ETH_SK_ETH795/production/_ext/1954962658/ICMP.o
 .debug_abbrev  0x00002826      0x242 build/XC32-PIC32_ETH_SK_ETH795/production/_ext/1954962658/IP.o
 .debug_abbrev  0x00002a68      0x166 build/XC32-PIC32_ETH_SK_ETH795/production/_ext/1954962658/LCDBlocking.o
 .debug_abbrev  0x00002bce      0x166 build/XC32-PIC32_ETH_SK_ETH795/production/_ext/1954962658/MPFS2.o
 .debug_abbrev  0x00002d34      0x166 build/XC32-PIC32_ETH_SK_ETH795/production/_ext/1954962658/NBNS.o
 .debug_abbrev  0x00002e9a      0x166 build/XC32-PIC32_ETH_SK_ETH795/production/_ext/1954962658/RSA.o
 .debug_abbrev  0x00003000      0x166 build/XC32-PIC32_ETH_SK_ETH795/production/_ext/1954962658/Random.o
 .debug_abbrev  0x00003166      0x166 build/XC32-PIC32_ETH_SK_ETH795/production/_ext/1954962658/Reboot.o
 .debug_abbrev  0x000032cc      0x166 build/XC32-PIC32_ETH_SK_ETH795/production/_ext/1954962658/SMTP.o
 .debug_abbrev  0x00003432      0x166 build/XC32-PIC32_ETH_SK_ETH795/production/_ext/1954962658/SNMP.o
 .debug_abbrev  0x00003598      0x166 build/XC32-PIC32_ETH_SK_ETH795/production/_ext/1954962658/SNMPv3.o
 .debug_abbrev  0x000036fe      0x166 build/XC32-PIC32_ETH_SK_ETH795/production/_ext/1954962658/SNMPv3USM.o
 .debug_abbrev  0x00003864      0x166 build/XC32-PIC32_ETH_SK_ETH795/production/_ext/1954962658/SNTP.o
 .debug_abbrev  0x000039ca      0x166 build/XC32-PIC32_ETH_SK_ETH795/production/_ext/1954962658/SPIEEPROM.o
 .debug_abbrev  0x00003b30      0x166 build/XC32-PIC32_ETH_SK_ETH795/production/_ext/1954962658/SPIFlash.o
 .debug_abbrev  0x00003c96      0x166 build/XC32-PIC32_ETH_SK_ETH795/production/_ext/1954962658/SPIRAM.o
 .debug_abbrev  0x00003dfc      0x166 build/XC32-PIC32_ETH_SK_ETH795/production/_ext/1954962658/SSL.o
 .debug_abbrev  0x00003f62      0x223 build/XC32-PIC32_ETH_SK_ETH795/production/_ext/1954962658/StackTsk.o
 .debug_abbrev  0x00004185      0x18f build/XC32-PIC32_ETH_SK_ETH795/production/_ext/1954962658/TCP.o
 .debug_abbrev  0x00004314      0x166 build/XC32-PIC32_ETH_SK_ETH795/production/_ext/1954962658/TCPPerformanceTest.o
 .debug_abbrev  0x0000447a      0x166 build/XC32-PIC32_ETH_SK_ETH795/production/_ext/1954962658/TFTPc.o
 .debug_abbrev  0x000045e0      0x166 build/XC32-PIC32_ETH_SK_ETH795/production/_ext/1954962658/Telnet.o
 .debug_abbrev  0x00004746      0x219 build/XC32-PIC32_ETH_SK_ETH795/production/_ext/1954962658/Tick.o
 .debug_abbrev  0x0000495f      0x166 build/XC32-PIC32_ETH_SK_ETH795/production/_ext/1954962658/UART.o
 .debug_abbrev  0x00004ac5      0x166 build/XC32-PIC32_ETH_SK_ETH795/production/_ext/1954962658/UART2TCPBridge.o
 .debug_abbrev  0x00004c2b      0x2f5 build/XC32-PIC32_ETH_SK_ETH795/production/_ext/1954962658/UDP.o
 .debug_abbrev  0x00004f20      0x166 build/XC32-PIC32_ETH_SK_ETH795/production/_ext/1954962658/UDPPerformanceTest.o
 .debug_abbrev  0x00005086      0x166 build/XC32-PIC32_ETH_SK_ETH795/production/_ext/1954962658/ZeroconfHelper.o
 .debug_abbrev  0x000051ec      0x166 build/XC32-PIC32_ETH_SK_ETH795/production/_ext/1954962658/ZeroconfLinkLocal.o
 .debug_abbrev  0x00005352      0x166 build/XC32-PIC32_ETH_SK_ETH795/production/_ext/1954962658/ZeroconfMulticastDNS.o
 .debug_abbrev  0x000054b8      0x342 build/XC32-PIC32_ETH_SK_ETH795/production/_ext/1472/MainDemo.o
 .debug_abbrev  0x000057fa       0x25 c:/program files (x86)/microchip/xc32/v1.34/bin/bin/../../lib/gcc/pic32mx/4.5.2/../../../../pic32mx/lib\libmchp_peripheral.a(read_core_timer_lib.o)
 .debug_abbrev  0x0000581f       0x58 c:/program files (x86)/microchip/xc32/v1.34/bin/bin/../../lib/gcc/pic32mx/4.5.2/../../../../pic32mx/lib\libmchp_peripheral_32MX795F512L.a(eth_ack_packet_lib.o)
 .debug_abbrev  0x00005877       0x34 c:/program files (x86)/microchip/xc32/v1.34/bin/bin/../../lib/gcc/pic32mx/4.5.2/../../../../pic32mx/lib\libmchp_peripheral_32MX795F512L.a(eth_descriptors_add_lib.o)
 .debug_abbrev  0x000058ab       0x34 c:/program files (x86)/microchip/xc32/v1.34/bin/bin/../../lib/gcc/pic32mx/4.5.2/../../../../pic32mx/lib\libmchp_peripheral_32MX795F512L.a(eth_init_lib.o)
 .debug_abbrev  0x000058df       0x25 c:/program files (x86)/microchip/xc32/v1.34/bin/bin/../../lib/gcc/pic32mx/4.5.2/../../../../pic32mx/lib\libmchp_peripheral_32MX795F512L.a(eth_mac_open_lib.o)
 .debug_abbrev  0x00005904       0x25 c:/program files (x86)/microchip/xc32/v1.34/bin/bin/../../lib/gcc/pic32mx/4.5.2/../../../../pic32mx/lib\libmchp_peripheral_32MX795F512L.a(eth_mac_set_address_max_lib.o)
 .debug_abbrev  0x00005929       0x34 c:/program files (x86)/microchip/xc32/v1.34/bin/bin/../../lib/gcc/pic32mx/4.5.2/../../../../pic32mx/lib\libmchp_peripheral_32MX795F512L.a(eth_rx_buffers_append_lib.o)
 .debug_abbrev  0x0000595d       0x25 c:/program files (x86)/microchip/xc32/v1.34/bin/bin/../../lib/gcc/pic32mx/4.5.2/../../../../pic32mx/lib\libmchp_peripheral_32MX795F512L.a(eth_rx_filters_lib.o)
 .debug_abbrev  0x00005982       0x25 c:/program files (x86)/microchip/xc32/v1.34/bin/bin/../../lib/gcc/pic32mx/4.5.2/../../../../pic32mx/lib\libmchp_peripheral_32MX795F512L.a(eth_rx_get_packet_lib.o)
 .debug_abbrev  0x000059a7       0x25 c:/program files (x86)/microchip/xc32/v1.34/bin/bin/../../lib/gcc/pic32mx/4.5.2/../../../../pic32mx/lib\libmchp_peripheral_32MX795F512L.a(eth_rx_set_buffer_size_lib.o)
 .debug_abbrev  0x000059cc       0x61 c:/program files (x86)/microchip/xc32/v1.34/bin/bin/../../lib/gcc/pic32mx/4.5.2/../../../../pic32mx/lib\libmchp_peripheral_32MX795F512L.a(eth_tx_packet_lib.o)
 .debug_abbrev  0x00005a2d       0x34 c:/program files (x86)/microchip/xc32/v1.34/bin/bin/../../lib/gcc/pic32mx/4.5.2/../../../../pic32mx/lib\libmchp_peripheral_32MX795F512L.a(_eth_append_busy_list_lib.o)
 .debug_abbrev  0x00005a61       0x38 c:/program files (x86)/microchip/xc32/v1.34/bin/bin/../../lib/gcc/pic32mx/4.5.2/../../../../pic32mx/lib\libmchp_peripheral_32MX795F512L.a(eth_miim_access.o)
 .debug_abbrev  0x00005a99       0x25 c:/program files (x86)/microchip/xc32/v1.34/bin/bin/../../lib/gcc/pic32mx/4.5.2/../../../../pic32mx/lib\libmchp_peripheral_32MX795F512L.a(pcache.o)
 .debug_abbrev  0x00005abe       0x25 c:/program files (x86)/microchip/xc32/v1.34/bin/bin/../../lib/gcc/pic32mx/4.5.2/../../../../pic32mx/lib\libmchp_peripheral_32MX795F512L.a(int_disable_interrupts_lib.o)
 .debug_abbrev  0x00005ae3       0x25 c:/program files (x86)/microchip/xc32/v1.34/bin/bin/../../lib/gcc/pic32mx/4.5.2/../../../../pic32mx/lib\libmchp_peripheral_32MX795F512L.a(int_restore_interrupts_lib.o)
 .debug_abbrev  0x00005b08       0x25 c:/program files (x86)/microchip/xc32/v1.34/bin/bin/../../lib/gcc/pic32mx/4.5.2/../../../../pic32mx/lib\libmchp_peripheral_32MX795F512L.a(int_enable_mv_int_lib.o)
 .debug_abbrev  0x00005b2d       0x25 c:/program files (x86)/microchip/xc32/v1.34/bin/bin/../../lib/gcc/pic32mx/4.5.2/../../../../pic32mx/lib\libmchp_peripheral_32MX795F512L.a(int_tbl_lib.o)
 .debug_abbrev  0x00005b52       0x25 c:/program files (x86)/microchip/xc32/v1.34/bin/bin/../../lib/gcc/pic32mx/4.5.2/../../../../pic32mx/lib\libmchp_peripheral_32MX795F512L.a(port_set_pins_digital_in_lib.o)
 .debug_abbrev  0x00005b77       0x25 c:/program files (x86)/microchip/xc32/v1.34/bin/bin/../../lib/gcc/pic32mx/4.5.2/../../../../pic32mx/lib\libmchp_peripheral_32MX795F512L.a(port_set_pins_digital_out_lib.o)
 .debug_abbrev  0x00005b9c        0x1 c:/program files (x86)/microchip/xc32/v1.34/bin/bin/../../lib/gcc/pic32mx/4.5.2/../../../../pic32mx/lib\libmchp_peripheral_32MX795F512L.a(_ports_tbl_libp.o)
 .debug_abbrev  0x00005b9d       0x25 c:/program files (x86)/microchip/xc32/v1.34/bin/bin/../../lib/gcc/pic32mx/4.5.2/../../../../pic32mx/lib\libmchp_peripheral_32MX795F512L.a(int_enable_interrupts_lib.o)
 .debug_abbrev  0x00005bc2      0x13d c:/program files (x86)/microchip/xc32/v1.34/bin/bin/../../lib/gcc/pic32mx/4.5.2\libgcc.a(_udivdi3.o)
 .debug_abbrev  0x00005cff      0x14a c:/program files (x86)/microchip/xc32/v1.34/bin/bin/../../lib/gcc/pic32mx/4.5.2\libgcc.a(_umoddi3.o)
 .debug_abbrev  0x00005e49       0x25 c:/program files (x86)/microchip/xc32/v1.34/bin/bin/../../lib/gcc/pic32mx/4.5.2/../../../../pic32mx/lib\libpic32.a(default-bootstrap-exception-handler.o)
 .debug_abbrev  0x00005e6e       0x25 c:/program files (x86)/microchip/xc32/v1.34/bin/bin/../../lib/gcc/pic32mx/4.5.2/../../../../pic32mx/lib\libpic32.a(default-on-reset.o)
 .debug_abbrev  0x00005e93       0x25 c:/program files (x86)/microchip/xc32/v1.34/bin/bin/../../lib/gcc/pic32mx/4.5.2/../../../../pic32mx/lib\libpic32.a(default-on-bootstrap.o)
 .debug_abbrev  0x00005eb8       0x25 c:/program files (x86)/microchip/xc32/v1.34/bin/bin/../../lib/gcc/pic32mx/4.5.2/../../../../pic32mx/lib\libpic32.a(defaultinterrupt.o)
 .debug_abbrev  0x00005edd       0x25 c:/program files (x86)/microchip/xc32/v1.34/bin/bin/../../lib/gcc/pic32mx/4.5.2/../../../../pic32mx/lib\libc.a(calloc.o)
 .debug_abbrev  0x00005f02       0x41 c:/program files (x86)/microchip/xc32/v1.34/bin/bin/../../lib/gcc/pic32mx/4.5.2/../../../../pic32mx/lib\libc.a(malloc.o)
 .debug_abbrev  0x00005f43       0x25 c:/program files (x86)/microchip/xc32/v1.34/bin/bin/../../lib/gcc/pic32mx/4.5.2/../../../../pic32mx/lib\libc.a(strncpy.o)
 .debug_abbrev  0x00005f68       0x38 c:/program files (x86)/microchip/xc32/v1.34/bin/bin/../../lib/gcc/pic32mx/4.5.2/../../../../pic32mx/lib\libpic32.a(sbrk.o)
 .debug_abbrev  0x00005fa0        0x1 c:/program files (x86)/microchip/xc32/v1.34/bin/bin/../../lib/gcc/pic32mx/4.5.2/../../../../pic32mx/lib\libpic32.a(errno.o)

.debug_line     0x00000000     0x60f1
 *(.debug_line)
 .debug_line    0x00000000      0x119 build/XC32-PIC32_ETH_SK_ETH795/production/_ext/1954962658/ARCFOUR.o
 .debug_line    0x00000119      0x274 build/XC32-PIC32_ETH_SK_ETH795/production/_ext/1954962658/ARP.o
 .debug_line    0x0000038d      0x119 build/XC32-PIC32_ETH_SK_ETH795/production/_ext/1954962658/Announce.o
 .debug_line    0x000004a6      0x119 build/XC32-PIC32_ETH_SK_ETH795/production/_ext/1954962658/AutoIP.o
 .debug_line    0x000005bf      0x119 build/XC32-PIC32_ETH_SK_ETH795/production/_ext/1954962658/BerkeleyAPI.o
 .debug_line    0x000006d8      0x119 build/XC32-PIC32_ETH_SK_ETH795/production/_ext/1954962658/BigInt.o
 .debug_line    0x000007f1      0x418 build/XC32-PIC32_ETH_SK_ETH795/production/_ext/1954962658/DHCP.o
 .debug_line    0x00000c09      0x119 build/XC32-PIC32_ETH_SK_ETH795/production/_ext/1954962658/DHCPs.o
 .debug_line    0x00000d22      0x119 build/XC32-PIC32_ETH_SK_ETH795/production/_ext/1954962658/DNS.o
 .debug_line    0x00000e3b      0x119 build/XC32-PIC32_ETH_SK_ETH795/production/_ext/1954962658/DNSs.o
 .debug_line    0x00000f54      0x18d build/XC32-PIC32_ETH_SK_ETH795/production/_ext/1954962658/Delay.o
 .debug_line    0x000010e1      0x119 build/XC32-PIC32_ETH_SK_ETH795/production/_ext/1954962658/DynDNS.o
 .debug_line    0x000011fa      0x119 build/XC32-PIC32_ETH_SK_ETH795/production/_ext/1954962658/ENC28J60.o
 .debug_line    0x00001313      0x119 build/XC32-PIC32_ETH_SK_ETH795/production/_ext/1954962658/ENCX24J600.o
 .debug_line    0x0000142c      0x438 build/XC32-PIC32_ETH_SK_ETH795/production/_ext/1954962658/ETHPIC32ExtPhy.o
 .debug_line    0x00001864      0x23c build/XC32-PIC32_ETH_SK_ETH795/production/_ext/1954962658/ETHPIC32ExtPhyDP83848.o
 .debug_line    0x00001aa0      0x3dc build/XC32-PIC32_ETH_SK_ETH795/production/_ext/1954962658/ETHPIC32IntMac.o
 .debug_line    0x00001e7c      0x119 build/XC32-PIC32_ETH_SK_ETH795/production/_ext/1954962658/FTP.o
 .debug_line    0x00001f95      0x119 build/XC32-PIC32_ETH_SK_ETH795/production/_ext/1954962658/FileSystem.o
 .debug_line    0x000020ae      0x119 build/XC32-PIC32_ETH_SK_ETH795/production/_ext/1954962658/HTTP2.o
 .debug_line    0x000021c7      0x119 build/XC32-PIC32_ETH_SK_ETH795/production/_ext/1954962658/Hashes.o
 .debug_line    0x000022e0      0x369 build/XC32-PIC32_ETH_SK_ETH795/production/_ext/1954962658/Helpers.o
 .debug_line    0x00002649      0x1f5 build/XC32-PIC32_ETH_SK_ETH795/production/_ext/1954962658/ICMP.o
 .debug_line    0x0000283e      0x227 build/XC32-PIC32_ETH_SK_ETH795/production/_ext/1954962658/IP.o
 .debug_line    0x00002a65      0x119 build/XC32-PIC32_ETH_SK_ETH795/production/_ext/1954962658/LCDBlocking.o
 .debug_line    0x00002b7e      0x119 build/XC32-PIC32_ETH_SK_ETH795/production/_ext/1954962658/MPFS2.o
 .debug_line    0x00002c97      0x119 build/XC32-PIC32_ETH_SK_ETH795/production/_ext/1954962658/NBNS.o
 .debug_line    0x00002db0      0x119 build/XC32-PIC32_ETH_SK_ETH795/production/_ext/1954962658/RSA.o
 .debug_line    0x00002ec9      0x119 build/XC32-PIC32_ETH_SK_ETH795/production/_ext/1954962658/Random.o
 .debug_line    0x00002fe2      0x119 build/XC32-PIC32_ETH_SK_ETH795/production/_ext/1954962658/Reboot.o
 .debug_line    0x000030fb      0x119 build/XC32-PIC32_ETH_SK_ETH795/production/_ext/1954962658/SMTP.o
 .debug_line    0x00003214      0x119 build/XC32-PIC32_ETH_SK_ETH795/production/_ext/1954962658/SNMP.o
 .debug_line    0x0000332d      0x119 build/XC32-PIC32_ETH_SK_ETH795/production/_ext/1954962658/SNMPv3.o
 .debug_line    0x00003446      0x119 build/XC32-PIC32_ETH_SK_ETH795/production/_ext/1954962658/SNMPv3USM.o
 .debug_line    0x0000355f      0x119 build/XC32-PIC32_ETH_SK_ETH795/production/_ext/1954962658/SNTP.o
 .debug_line    0x00003678      0x119 build/XC32-PIC32_ETH_SK_ETH795/production/_ext/1954962658/SPIEEPROM.o
 .debug_line    0x00003791      0x119 build/XC32-PIC32_ETH_SK_ETH795/production/_ext/1954962658/SPIFlash.o
 .debug_line    0x000038aa      0x119 build/XC32-PIC32_ETH_SK_ETH795/production/_ext/1954962658/SPIRAM.o
 .debug_line    0x000039c3      0x119 build/XC32-PIC32_ETH_SK_ETH795/production/_ext/1954962658/SSL.o
 .debug_line    0x00003adc      0x246 build/XC32-PIC32_ETH_SK_ETH795/production/_ext/1954962658/StackTsk.o
 .debug_line    0x00003d22      0x169 build/XC32-PIC32_ETH_SK_ETH795/production/_ext/1954962658/TCP.o
 .debug_line    0x00003e8b      0x119 build/XC32-PIC32_ETH_SK_ETH795/production/_ext/1954962658/TCPPerformanceTest.o
 .debug_line    0x00003fa4      0x119 build/XC32-PIC32_ETH_SK_ETH795/production/_ext/1954962658/TFTPc.o
 .debug_line    0x000040bd      0x119 build/XC32-PIC32_ETH_SK_ETH795/production/_ext/1954962658/Telnet.o
 .debug_line    0x000041d6      0x1d8 build/XC32-PIC32_ETH_SK_ETH795/production/_ext/1954962658/Tick.o
 .debug_line    0x000043ae      0x119 build/XC32-PIC32_ETH_SK_ETH795/production/_ext/1954962658/UART.o
 .debug_line    0x000044c7      0x119 build/XC32-PIC32_ETH_SK_ETH795/production/_ext/1954962658/UART2TCPBridge.o
 .debug_line    0x000045e0      0x385 build/XC32-PIC32_ETH_SK_ETH795/production/_ext/1954962658/UDP.o
 .debug_line    0x00004965      0x119 build/XC32-PIC32_ETH_SK_ETH795/production/_ext/1954962658/UDPPerformanceTest.o
 .debug_line    0x00004a7e      0x119 build/XC32-PIC32_ETH_SK_ETH795/production/_ext/1954962658/ZeroconfHelper.o
 .debug_line    0x00004b97      0x119 build/XC32-PIC32_ETH_SK_ETH795/production/_ext/1954962658/ZeroconfLinkLocal.o
 .debug_line    0x00004cb0      0x119 build/XC32-PIC32_ETH_SK_ETH795/production/_ext/1954962658/ZeroconfMulticastDNS.o
 .debug_line    0x00004dc9      0x2e6 build/XC32-PIC32_ETH_SK_ETH795/production/_ext/1472/MainDemo.o
 .debug_line    0x000050af       0x6e c:/program files (x86)/microchip/xc32/v1.34/bin/bin/../../lib/gcc/pic32mx/4.5.2/../../../../pic32mx/lib\libmchp_peripheral.a(read_core_timer_lib.o)
 .debug_line    0x0000511d       0x80 c:/program files (x86)/microchip/xc32/v1.34/bin/bin/../../lib/gcc/pic32mx/4.5.2/../../../../pic32mx/lib\libmchp_peripheral_32MX795F512L.a(eth_ack_packet_lib.o)
 .debug_line    0x0000519d       0x85 c:/program files (x86)/microchip/xc32/v1.34/bin/bin/../../lib/gcc/pic32mx/4.5.2/../../../../pic32mx/lib\libmchp_peripheral_32MX795F512L.a(eth_descriptors_add_lib.o)
 .debug_line    0x00005222       0x77 c:/program files (x86)/microchip/xc32/v1.34/bin/bin/../../lib/gcc/pic32mx/4.5.2/../../../../pic32mx/lib\libmchp_peripheral_32MX795F512L.a(eth_init_lib.o)
 .debug_line    0x00005299       0x69 c:/program files (x86)/microchip/xc32/v1.34/bin/bin/../../lib/gcc/pic32mx/4.5.2/../../../../pic32mx/lib\libmchp_peripheral_32MX795F512L.a(eth_mac_open_lib.o)
 .debug_line    0x00005302       0x74 c:/program files (x86)/microchip/xc32/v1.34/bin/bin/../../lib/gcc/pic32mx/4.5.2/../../../../pic32mx/lib\libmchp_peripheral_32MX795F512L.a(eth_mac_set_address_max_lib.o)
 .debug_line    0x00005376       0x87 c:/program files (x86)/microchip/xc32/v1.34/bin/bin/../../lib/gcc/pic32mx/4.5.2/../../../../pic32mx/lib\libmchp_peripheral_32MX795F512L.a(eth_rx_buffers_append_lib.o)
 .debug_line    0x000053fd       0x6b c:/program files (x86)/microchip/xc32/v1.34/bin/bin/../../lib/gcc/pic32mx/4.5.2/../../../../pic32mx/lib\libmchp_peripheral_32MX795F512L.a(eth_rx_filters_lib.o)
 .debug_line    0x00005468       0x6e c:/program files (x86)/microchip/xc32/v1.34/bin/bin/../../lib/gcc/pic32mx/4.5.2/../../../../pic32mx/lib\libmchp_peripheral_32MX795F512L.a(eth_rx_get_packet_lib.o)
 .debug_line    0x000054d6       0x73 c:/program files (x86)/microchip/xc32/v1.34/bin/bin/../../lib/gcc/pic32mx/4.5.2/../../../../pic32mx/lib\libmchp_peripheral_32MX795F512L.a(eth_rx_set_buffer_size_lib.o)
 .debug_line    0x00005549       0x7f c:/program files (x86)/microchip/xc32/v1.34/bin/bin/../../lib/gcc/pic32mx/4.5.2/../../../../pic32mx/lib\libmchp_peripheral_32MX795F512L.a(eth_tx_packet_lib.o)
 .debug_line    0x000055c8       0x87 c:/program files (x86)/microchip/xc32/v1.34/bin/bin/../../lib/gcc/pic32mx/4.5.2/../../../../pic32mx/lib\libmchp_peripheral_32MX795F512L.a(_eth_append_busy_list_lib.o)
 .debug_line    0x0000564f       0x68 c:/program files (x86)/microchip/xc32/v1.34/bin/bin/../../lib/gcc/pic32mx/4.5.2/../../../../pic32mx/lib\libmchp_peripheral_32MX795F512L.a(eth_miim_access.o)
 .debug_line    0x000056b7       0x62 c:/program files (x86)/microchip/xc32/v1.34/bin/bin/../../lib/gcc/pic32mx/4.5.2/../../../../pic32mx/lib\libmchp_peripheral_32MX795F512L.a(pcache.o)
 .debug_line    0x00005719       0x73 c:/program files (x86)/microchip/xc32/v1.34/bin/bin/../../lib/gcc/pic32mx/4.5.2/../../../../pic32mx/lib\libmchp_peripheral_32MX795F512L.a(int_disable_interrupts_lib.o)
 .debug_line    0x0000578c       0x73 c:/program files (x86)/microchip/xc32/v1.34/bin/bin/../../lib/gcc/pic32mx/4.5.2/../../../../pic32mx/lib\libmchp_peripheral_32MX795F512L.a(int_restore_interrupts_lib.o)
 .debug_line    0x000057ff       0x6e c:/program files (x86)/microchip/xc32/v1.34/bin/bin/../../lib/gcc/pic32mx/4.5.2/../../../../pic32mx/lib\libmchp_peripheral_32MX795F512L.a(int_enable_mv_int_lib.o)
 .debug_line    0x0000586d       0x64 c:/program files (x86)/microchip/xc32/v1.34/bin/bin/../../lib/gcc/pic32mx/4.5.2/../../../../pic32mx/lib\libmchp_peripheral_32MX795F512L.a(int_tbl_lib.o)
 .debug_line    0x000058d1       0x77 c:/program files (x86)/microchip/xc32/v1.34/bin/bin/../../lib/gcc/pic32mx/4.5.2/../../../../pic32mx/lib\libmchp_peripheral_32MX795F512L.a(port_set_pins_digital_in_lib.o)
 .debug_line    0x00005948       0x78 c:/program files (x86)/microchip/xc32/v1.34/bin/bin/../../lib/gcc/pic32mx/4.5.2/../../../../pic32mx/lib\libmchp_peripheral_32MX795F512L.a(port_set_pins_digital_out_lib.o)
 .debug_line    0x000059c0        0x0 c:/program files (x86)/microchip/xc32/v1.34/bin/bin/../../lib/gcc/pic32mx/4.5.2/../../../../pic32mx/lib\libmchp_peripheral_32MX795F512L.a(_ports_tbl_libp.o)
 .debug_line    0x000059c0       0x72 c:/program files (x86)/microchip/xc32/v1.34/bin/bin/../../lib/gcc/pic32mx/4.5.2/../../../../pic32mx/lib\libmchp_peripheral_32MX795F512L.a(int_enable_interrupts_lib.o)
 .debug_line    0x00005a32      0x16f c:/program files (x86)/microchip/xc32/v1.34/bin/bin/../../lib/gcc/pic32mx/4.5.2\libgcc.a(_udivdi3.o)
 .debug_line    0x00005ba1      0x14e c:/program files (x86)/microchip/xc32/v1.34/bin/bin/../../lib/gcc/pic32mx/4.5.2\libgcc.a(_umoddi3.o)
 .debug_line    0x00005cef       0x97 c:/program files (x86)/microchip/xc32/v1.34/bin/bin/../../lib/gcc/pic32mx/4.5.2/../../../../pic32mx/lib\libpic32.a(default-bootstrap-exception-handler.o)
 .debug_line    0x00005d86       0x84 c:/program files (x86)/microchip/xc32/v1.34/bin/bin/../../lib/gcc/pic32mx/4.5.2/../../../../pic32mx/lib\libpic32.a(default-on-reset.o)
 .debug_line    0x00005e0a       0x88 c:/program files (x86)/microchip/xc32/v1.34/bin/bin/../../lib/gcc/pic32mx/4.5.2/../../../../pic32mx/lib\libpic32.a(default-on-bootstrap.o)
 .debug_line    0x00005e92       0x96 c:/program files (x86)/microchip/xc32/v1.34/bin/bin/../../lib/gcc/pic32mx/4.5.2/../../../../pic32mx/lib\libpic32.a(defaultinterrupt.o)
 .debug_line    0x00005f28       0x70 c:/program files (x86)/microchip/xc32/v1.34/bin/bin/../../lib/gcc/pic32mx/4.5.2/../../../../pic32mx/lib\libc.a(calloc.o)
 .debug_line    0x00005f98       0x70 c:/program files (x86)/microchip/xc32/v1.34/bin/bin/../../lib/gcc/pic32mx/4.5.2/../../../../pic32mx/lib\libc.a(malloc.o)
 .debug_line    0x00006008       0x71 c:/program files (x86)/microchip/xc32/v1.34/bin/bin/../../lib/gcc/pic32mx/4.5.2/../../../../pic32mx/lib\libc.a(strncpy.o)
 .debug_line    0x00006079       0x78 c:/program files (x86)/microchip/xc32/v1.34/bin/bin/../../lib/gcc/pic32mx/4.5.2/../../../../pic32mx/lib\libpic32.a(sbrk.o)
 .debug_line    0x000060f1        0x0 c:/program files (x86)/microchip/xc32/v1.34/bin/bin/../../lib/gcc/pic32mx/4.5.2/../../../../pic32mx/lib\libpic32.a(errno.o)

.debug_frame    0x00000000     0x14dc
 *(.debug_frame)
 .debug_frame   0x00000000       0xd4 build/XC32-PIC32_ETH_SK_ETH795/production/_ext/1954962658/ARP.o
 .debug_frame   0x000000d4      0x154 build/XC32-PIC32_ETH_SK_ETH795/production/_ext/1954962658/DHCP.o
 .debug_frame   0x00000228       0x48 build/XC32-PIC32_ETH_SK_ETH795/production/_ext/1954962658/Delay.o
 .debug_frame   0x00000270      0x160 build/XC32-PIC32_ETH_SK_ETH795/production/_ext/1954962658/ETHPIC32ExtPhy.o
 .debug_frame   0x000003d0       0x80 build/XC32-PIC32_ETH_SK_ETH795/production/_ext/1954962658/ETHPIC32ExtPhyDP83848.o
 .debug_frame   0x00000450      0x2cc build/XC32-PIC32_ETH_SK_ETH795/production/_ext/1954962658/ETHPIC32IntMac.o
 .debug_frame   0x0000071c      0x1d4 build/XC32-PIC32_ETH_SK_ETH795/production/_ext/1954962658/Helpers.o
 .debug_frame   0x000008f0       0x2c build/XC32-PIC32_ETH_SK_ETH795/production/_ext/1954962658/ICMP.o
 .debug_frame   0x0000091c       0x80 build/XC32-PIC32_ETH_SK_ETH795/production/_ext/1954962658/IP.o
 .debug_frame   0x0000099c       0x64 build/XC32-PIC32_ETH_SK_ETH795/production/_ext/1954962658/StackTsk.o
 .debug_frame   0x00000a00       0xd8 build/XC32-PIC32_ETH_SK_ETH795/production/_ext/1954962658/Tick.o
 .debug_frame   0x00000ad8      0x210 build/XC32-PIC32_ETH_SK_ETH795/production/_ext/1954962658/UDP.o
 .debug_frame   0x00000ce8       0x80 build/XC32-PIC32_ETH_SK_ETH795/production/_ext/1472/MainDemo.o
 .debug_frame   0x00000d68       0x20 c:/program files (x86)/microchip/xc32/v1.34/bin/bin/../../lib/gcc/pic32mx/4.5.2/../../../../pic32mx/lib\libmchp_peripheral.a(read_core_timer_lib.o)
 .debug_frame   0x00000d88       0xb8 c:/program files (x86)/microchip/xc32/v1.34/bin/bin/../../lib/gcc/pic32mx/4.5.2/../../../../pic32mx/lib\libmchp_peripheral_32MX795F512L.a(eth_ack_packet_lib.o)
 .debug_frame   0x00000e40       0x50 c:/program files (x86)/microchip/xc32/v1.34/bin/bin/../../lib/gcc/pic32mx/4.5.2/../../../../pic32mx/lib\libmchp_peripheral_32MX795F512L.a(eth_descriptors_add_lib.o)
 .debug_frame   0x00000e90       0x28 c:/program files (x86)/microchip/xc32/v1.34/bin/bin/../../lib/gcc/pic32mx/4.5.2/../../../../pic32mx/lib\libmchp_peripheral_32MX795F512L.a(eth_init_lib.o)
 .debug_frame   0x00000eb8       0x20 c:/program files (x86)/microchip/xc32/v1.34/bin/bin/../../lib/gcc/pic32mx/4.5.2/../../../../pic32mx/lib\libmchp_peripheral_32MX795F512L.a(eth_mac_open_lib.o)
 .debug_frame   0x00000ed8       0x50 c:/program files (x86)/microchip/xc32/v1.34/bin/bin/../../lib/gcc/pic32mx/4.5.2/../../../../pic32mx/lib\libmchp_peripheral_32MX795F512L.a(eth_mac_set_address_max_lib.o)
 .debug_frame   0x00000f28       0x28 c:/program files (x86)/microchip/xc32/v1.34/bin/bin/../../lib/gcc/pic32mx/4.5.2/../../../../pic32mx/lib\libmchp_peripheral_32MX795F512L.a(eth_rx_buffers_append_lib.o)
 .debug_frame   0x00000f50       0x70 c:/program files (x86)/microchip/xc32/v1.34/bin/bin/../../lib/gcc/pic32mx/4.5.2/../../../../pic32mx/lib\libmchp_peripheral_32MX795F512L.a(eth_rx_filters_lib.o)
 .debug_frame   0x00000fc0       0x3c c:/program files (x86)/microchip/xc32/v1.34/bin/bin/../../lib/gcc/pic32mx/4.5.2/../../../../pic32mx/lib\libmchp_peripheral_32MX795F512L.a(eth_rx_get_packet_lib.o)
 .debug_frame   0x00000ffc       0x20 c:/program files (x86)/microchip/xc32/v1.34/bin/bin/../../lib/gcc/pic32mx/4.5.2/../../../../pic32mx/lib\libmchp_peripheral_32MX795F512L.a(eth_rx_set_buffer_size_lib.o)
 .debug_frame   0x0000101c       0x8c c:/program files (x86)/microchip/xc32/v1.34/bin/bin/../../lib/gcc/pic32mx/4.5.2/../../../../pic32mx/lib\libmchp_peripheral_32MX795F512L.a(eth_tx_packet_lib.o)
 .debug_frame   0x000010a8       0x20 c:/program files (x86)/microchip/xc32/v1.34/bin/bin/../../lib/gcc/pic32mx/4.5.2/../../../../pic32mx/lib\libmchp_peripheral_32MX795F512L.a(_eth_append_busy_list_lib.o)
 .debug_frame   0x000010c8       0x70 c:/program files (x86)/microchip/xc32/v1.34/bin/bin/../../lib/gcc/pic32mx/4.5.2/../../../../pic32mx/lib\libmchp_peripheral_32MX795F512L.a(eth_miim_access.o)
 .debug_frame   0x00001138       0x30 c:/program files (x86)/microchip/xc32/v1.34/bin/bin/../../lib/gcc/pic32mx/4.5.2/../../../../pic32mx/lib\libmchp_peripheral_32MX795F512L.a(pcache.o)
 .debug_frame   0x00001168       0x20 c:/program files (x86)/microchip/xc32/v1.34/bin/bin/../../lib/gcc/pic32mx/4.5.2/../../../../pic32mx/lib\libmchp_peripheral_32MX795F512L.a(int_disable_interrupts_lib.o)
 .debug_frame   0x00001188       0x20 c:/program files (x86)/microchip/xc32/v1.34/bin/bin/../../lib/gcc/pic32mx/4.5.2/../../../../pic32mx/lib\libmchp_peripheral_32MX795F512L.a(int_restore_interrupts_lib.o)
 .debug_frame   0x000011a8       0x28 c:/program files (x86)/microchip/xc32/v1.34/bin/bin/../../lib/gcc/pic32mx/4.5.2/../../../../pic32mx/lib\libmchp_peripheral_32MX795F512L.a(int_enable_mv_int_lib.o)
 .debug_frame   0x000011d0       0xa0 c:/program files (x86)/microchip/xc32/v1.34/bin/bin/../../lib/gcc/pic32mx/4.5.2/../../../../pic32mx/lib\libmchp_peripheral_32MX795F512L.a(int_tbl_lib.o)
 .debug_frame   0x00001270       0x20 c:/program files (x86)/microchip/xc32/v1.34/bin/bin/../../lib/gcc/pic32mx/4.5.2/../../../../pic32mx/lib\libmchp_peripheral_32MX795F512L.a(port_set_pins_digital_in_lib.o)
 .debug_frame   0x00001290       0x20 c:/program files (x86)/microchip/xc32/v1.34/bin/bin/../../lib/gcc/pic32mx/4.5.2/../../../../pic32mx/lib\libmchp_peripheral_32MX795F512L.a(port_set_pins_digital_out_lib.o)
 .debug_frame   0x000012b0       0x20 c:/program files (x86)/microchip/xc32/v1.34/bin/bin/../../lib/gcc/pic32mx/4.5.2/../../../../pic32mx/lib\libmchp_peripheral_32MX795F512L.a(int_enable_interrupts_lib.o)
 .debug_frame   0x000012d0       0x20 c:/program files (x86)/microchip/xc32/v1.34/bin/bin/../../lib/gcc/pic32mx/4.5.2\libgcc.a(_udivdi3.o)
 .debug_frame   0x000012f0       0x20 c:/program files (x86)/microchip/xc32/v1.34/bin/bin/../../lib/gcc/pic32mx/4.5.2\libgcc.a(_umoddi3.o)
 .debug_frame   0x00001310       0x28 c:/program files (x86)/microchip/xc32/v1.34/bin/bin/../../lib/gcc/pic32mx/4.5.2/../../../../pic32mx/lib\libpic32.a(default-bootstrap-exception-handler.o)
 .debug_frame   0x00001338       0x20 c:/program files (x86)/microchip/xc32/v1.34/bin/bin/../../lib/gcc/pic32mx/4.5.2/../../../../pic32mx/lib\libpic32.a(default-on-reset.o)
 .debug_frame   0x00001358       0x20 c:/program files (x86)/microchip/xc32/v1.34/bin/bin/../../lib/gcc/pic32mx/4.5.2/../../../../pic32mx/lib\libpic32.a(default-on-bootstrap.o)
 .debug_frame   0x00001378       0x20 c:/program files (x86)/microchip/xc32/v1.34/bin/bin/../../lib/gcc/pic32mx/4.5.2/../../../../pic32mx/lib\libpic32.a(defaultinterrupt.o)
 .debug_frame   0x00001398       0x2c c:/program files (x86)/microchip/xc32/v1.34/bin/bin/../../lib/gcc/pic32mx/4.5.2/../../../../pic32mx/lib\libc.a(calloc.o)
 .debug_frame   0x000013c4       0x6c c:/program files (x86)/microchip/xc32/v1.34/bin/bin/../../lib/gcc/pic32mx/4.5.2/../../../../pic32mx/lib\libc.a(malloc.o)
 .debug_frame   0x00001430       0x20 c:/program files (x86)/microchip/xc32/v1.34/bin/bin/../../lib/gcc/pic32mx/4.5.2/../../../../pic32mx/lib\libc.a(strncpy.o)
 .debug_frame   0x00001450       0x8c c:/program files (x86)/microchip/xc32/v1.34/bin/bin/../../lib/gcc/pic32mx/4.5.2/../../../../pic32mx/lib\libpic32.a(sbrk.o)

.debug_str      0x00000000     0x4178
 *(.debug_str)
 .debug_str     0x00000000      0x12f build/XC32-PIC32_ETH_SK_ETH795/production/_ext/1954962658/ARCFOUR.o
 .debug_str     0x0000012f      0x147 build/XC32-PIC32_ETH_SK_ETH795/production/_ext/1954962658/ARP.o
 .debug_str     0x00000276      0x12f build/XC32-PIC32_ETH_SK_ETH795/production/_ext/1954962658/Announce.o
 .debug_str     0x000003a5      0x12f build/XC32-PIC32_ETH_SK_ETH795/production/_ext/1954962658/AutoIP.o
 .debug_str     0x000004d4      0x12f build/XC32-PIC32_ETH_SK_ETH795/production/_ext/1954962658/BerkeleyAPI.o
 .debug_str     0x00000603      0x12f build/XC32-PIC32_ETH_SK_ETH795/production/_ext/1954962658/BigInt.o
 .debug_str     0x00000732      0x177 build/XC32-PIC32_ETH_SK_ETH795/production/_ext/1954962658/DHCP.o
 .debug_str     0x000008a9      0x12f build/XC32-PIC32_ETH_SK_ETH795/production/_ext/1954962658/DHCPs.o
 .debug_str     0x000009d8      0x12f build/XC32-PIC32_ETH_SK_ETH795/production/_ext/1954962658/DNS.o
 .debug_str     0x00000b07      0x12f build/XC32-PIC32_ETH_SK_ETH795/production/_ext/1954962658/DNSs.o
 .debug_str     0x00000c36      0x12f build/XC32-PIC32_ETH_SK_ETH795/production/_ext/1954962658/Delay.o
 .debug_str     0x00000d65      0x12f build/XC32-PIC32_ETH_SK_ETH795/production/_ext/1954962658/DynDNS.o
 .debug_str     0x00000e94      0x12f build/XC32-PIC32_ETH_SK_ETH795/production/_ext/1954962658/ENC28J60.o
 .debug_str     0x00000fc3      0x12f build/XC32-PIC32_ETH_SK_ETH795/production/_ext/1954962658/ENCX24J600.o
 .debug_str     0x000010f2      0x1bd build/XC32-PIC32_ETH_SK_ETH795/production/_ext/1954962658/ETHPIC32ExtPhy.o
 .debug_str     0x000012af      0x12f build/XC32-PIC32_ETH_SK_ETH795/production/_ext/1954962658/ETHPIC32ExtPhyDP83848.o
 .debug_str     0x000013de      0x1d9 build/XC32-PIC32_ETH_SK_ETH795/production/_ext/1954962658/ETHPIC32IntMac.o
 .debug_str     0x000015b7      0x12f build/XC32-PIC32_ETH_SK_ETH795/production/_ext/1954962658/FTP.o
 .debug_str     0x000016e6      0x12f build/XC32-PIC32_ETH_SK_ETH795/production/_ext/1954962658/FileSystem.o
 .debug_str     0x00001815      0x12f build/XC32-PIC32_ETH_SK_ETH795/production/_ext/1954962658/HTTP2.o
 .debug_str     0x00001944      0x12f build/XC32-PIC32_ETH_SK_ETH795/production/_ext/1954962658/Hashes.o
 .debug_str     0x00001a73      0x142 build/XC32-PIC32_ETH_SK_ETH795/production/_ext/1954962658/Helpers.o
 .debug_str     0x00001bb5      0x12f build/XC32-PIC32_ETH_SK_ETH795/production/_ext/1954962658/ICMP.o
 .debug_str     0x00001ce4      0x142 build/XC32-PIC32_ETH_SK_ETH795/production/_ext/1954962658/IP.o
 .debug_str     0x00001e26      0x12f build/XC32-PIC32_ETH_SK_ETH795/production/_ext/1954962658/LCDBlocking.o
 .debug_str     0x00001f55      0x12f build/XC32-PIC32_ETH_SK_ETH795/production/_ext/1954962658/MPFS2.o
 .debug_str     0x00002084      0x12f build/XC32-PIC32_ETH_SK_ETH795/production/_ext/1954962658/NBNS.o
 .debug_str     0x000021b3      0x12f build/XC32-PIC32_ETH_SK_ETH795/production/_ext/1954962658/RSA.o
 .debug_str     0x000022e2      0x12f build/XC32-PIC32_ETH_SK_ETH795/production/_ext/1954962658/Random.o
 .debug_str     0x00002411      0x12f build/XC32-PIC32_ETH_SK_ETH795/production/_ext/1954962658/Reboot.o
 .debug_str     0x00002540      0x12f build/XC32-PIC32_ETH_SK_ETH795/production/_ext/1954962658/SMTP.o
 .debug_str     0x0000266f      0x12f build/XC32-PIC32_ETH_SK_ETH795/production/_ext/1954962658/SNMP.o
 .debug_str     0x0000279e      0x12f build/XC32-PIC32_ETH_SK_ETH795/production/_ext/1954962658/SNMPv3.o
 .debug_str     0x000028cd      0x12f build/XC32-PIC32_ETH_SK_ETH795/production/_ext/1954962658/SNMPv3USM.o
 .debug_str     0x000029fc      0x12f build/XC32-PIC32_ETH_SK_ETH795/production/_ext/1954962658/SNTP.o
 .debug_str     0x00002b2b      0x12f build/XC32-PIC32_ETH_SK_ETH795/production/_ext/1954962658/SPIEEPROM.o
 .debug_str     0x00002c5a      0x12f build/XC32-PIC32_ETH_SK_ETH795/production/_ext/1954962658/SPIFlash.o
 .debug_str     0x00002d89      0x12f build/XC32-PIC32_ETH_SK_ETH795/production/_ext/1954962658/SPIRAM.o
 .debug_str     0x00002eb8      0x12f build/XC32-PIC32_ETH_SK_ETH795/production/_ext/1954962658/SSL.o
 .debug_str     0x00002fe7      0x144 build/XC32-PIC32_ETH_SK_ETH795/production/_ext/1954962658/StackTsk.o
 .debug_str     0x0000312b      0x12f build/XC32-PIC32_ETH_SK_ETH795/production/_ext/1954962658/TCP.o
 .debug_str     0x0000325a      0x12f build/XC32-PIC32_ETH_SK_ETH795/production/_ext/1954962658/TCPPerformanceTest.o
 .debug_str     0x00003389      0x12f build/XC32-PIC32_ETH_SK_ETH795/production/_ext/1954962658/TFTPc.o
 .debug_str     0x000034b8      0x12f build/XC32-PIC32_ETH_SK_ETH795/production/_ext/1954962658/Telnet.o
 .debug_str     0x000035e7      0x14b build/XC32-PIC32_ETH_SK_ETH795/production/_ext/1954962658/Tick.o
 .debug_str     0x00003732      0x12f build/XC32-PIC32_ETH_SK_ETH795/production/_ext/1954962658/UART.o
 .debug_str     0x00003861      0x12f build/XC32-PIC32_ETH_SK_ETH795/production/_ext/1954962658/UART2TCPBridge.o
 .debug_str     0x00003990      0x1ae build/XC32-PIC32_ETH_SK_ETH795/production/_ext/1954962658/UDP.o
 .debug_str     0x00003b3e      0x12f build/XC32-PIC32_ETH_SK_ETH795/production/_ext/1954962658/UDPPerformanceTest.o
 .debug_str     0x00003c6d      0x12f build/XC32-PIC32_ETH_SK_ETH795/production/_ext/1954962658/ZeroconfHelper.o
 .debug_str     0x00003d9c      0x12f build/XC32-PIC32_ETH_SK_ETH795/production/_ext/1954962658/ZeroconfLinkLocal.o
 .debug_str     0x00003ecb      0x12f build/XC32-PIC32_ETH_SK_ETH795/production/_ext/1954962658/ZeroconfMulticastDNS.o
 .debug_str     0x00003ffa      0x17e build/XC32-PIC32_ETH_SK_ETH795/production/_ext/1472/MainDemo.o
 .debug_str     0x00004178        0x0 c:/program files (x86)/microchip/xc32/v1.34/bin/bin/../../lib/gcc/pic32mx/4.5.2/../../../../pic32mx/lib\libmchp_peripheral.a(read_core_timer_lib.o)
 .debug_str     0x00004178        0x0 c:/program files (x86)/microchip/xc32/v1.34/bin/bin/../../lib/gcc/pic32mx/4.5.2/../../../../pic32mx/lib\libmchp_peripheral_32MX795F512L.a(eth_ack_packet_lib.o)
 .debug_str     0x00004178        0x0 c:/program files (x86)/microchip/xc32/v1.34/bin/bin/../../lib/gcc/pic32mx/4.5.2/../../../../pic32mx/lib\libmchp_peripheral_32MX795F512L.a(eth_descriptors_add_lib.o)
 .debug_str     0x00004178        0x0 c:/program files (x86)/microchip/xc32/v1.34/bin/bin/../../lib/gcc/pic32mx/4.5.2/../../../../pic32mx/lib\libmchp_peripheral_32MX795F512L.a(eth_init_lib.o)
 .debug_str     0x00004178        0x0 c:/program files (x86)/microchip/xc32/v1.34/bin/bin/../../lib/gcc/pic32mx/4.5.2/../../../../pic32mx/lib\libmchp_peripheral_32MX795F512L.a(eth_mac_open_lib.o)
 .debug_str     0x00004178        0x0 c:/program files (x86)/microchip/xc32/v1.34/bin/bin/../../lib/gcc/pic32mx/4.5.2/../../../../pic32mx/lib\libmchp_peripheral_32MX795F512L.a(eth_mac_set_address_max_lib.o)
 .debug_str     0x00004178        0x0 c:/program files (x86)/microchip/xc32/v1.34/bin/bin/../../lib/gcc/pic32mx/4.5.2/../../../../pic32mx/lib\libmchp_peripheral_32MX795F512L.a(eth_rx_buffers_append_lib.o)
 .debug_str     0x00004178        0x0 c:/program files (x86)/microchip/xc32/v1.34/bin/bin/../../lib/gcc/pic32mx/4.5.2/../../../../pic32mx/lib\libmchp_peripheral_32MX795F512L.a(eth_rx_filters_lib.o)
 .debug_str     0x00004178        0x0 c:/program files (x86)/microchip/xc32/v1.34/bin/bin/../../lib/gcc/pic32mx/4.5.2/../../../../pic32mx/lib\libmchp_peripheral_32MX795F512L.a(eth_rx_get_packet_lib.o)
 .debug_str     0x00004178        0x0 c:/program files (x86)/microchip/xc32/v1.34/bin/bin/../../lib/gcc/pic32mx/4.5.2/../../../../pic32mx/lib\libmchp_peripheral_32MX795F512L.a(eth_rx_set_buffer_size_lib.o)
 .debug_str     0x00004178        0x0 c:/program files (x86)/microchip/xc32/v1.34/bin/bin/../../lib/gcc/pic32mx/4.5.2/../../../../pic32mx/lib\libmchp_peripheral_32MX795F512L.a(eth_tx_packet_lib.o)
 .debug_str     0x00004178        0x0 c:/program files (x86)/microchip/xc32/v1.34/bin/bin/../../lib/gcc/pic32mx/4.5.2/../../../../pic32mx/lib\libmchp_peripheral_32MX795F512L.a(_eth_append_busy_list_lib.o)
 .debug_str     0x00004178        0x0 c:/program files (x86)/microchip/xc32/v1.34/bin/bin/../../lib/gcc/pic32mx/4.5.2/../../../../pic32mx/lib\libmchp_peripheral_32MX795F512L.a(eth_miim_access.o)
 .debug_str     0x00004178        0x0 c:/program files (x86)/microchip/xc32/v1.34/bin/bin/../../lib/gcc/pic32mx/4.5.2/../../../../pic32mx/lib\libmchp_peripheral_32MX795F512L.a(pcache.o)
 .debug_str     0x00004178        0x0 c:/program files (x86)/microchip/xc32/v1.34/bin/bin/../../lib/gcc/pic32mx/4.5.2/../../../../pic32mx/lib\libmchp_peripheral_32MX795F512L.a(int_disable_interrupts_lib.o)
 .debug_str     0x00004178        0x0 c:/program files (x86)/microchip/xc32/v1.34/bin/bin/../../lib/gcc/pic32mx/4.5.2/../../../../pic32mx/lib\libmchp_peripheral_32MX795F512L.a(int_restore_interrupts_lib.o)
 .debug_str     0x00004178        0x0 c:/program files (x86)/microchip/xc32/v1.34/bin/bin/../../lib/gcc/pic32mx/4.5.2/../../../../pic32mx/lib\libmchp_peripheral_32MX795F512L.a(int_enable_mv_int_lib.o)
 .debug_str     0x00004178        0x0 c:/program files (x86)/microchip/xc32/v1.34/bin/bin/../../lib/gcc/pic32mx/4.5.2/../../../../pic32mx/lib\libmchp_peripheral_32MX795F512L.a(int_tbl_lib.o)
 .debug_str     0x00004178        0x0 c:/program files (x86)/microchip/xc32/v1.34/bin/bin/../../lib/gcc/pic32mx/4.5.2/../../../../pic32mx/lib\libmchp_peripheral_32MX795F512L.a(port_set_pins_digital_in_lib.o)
 .debug_str     0x00004178        0x0 c:/program files (x86)/microchip/xc32/v1.34/bin/bin/../../lib/gcc/pic32mx/4.5.2/../../../../pic32mx/lib\libmchp_peripheral_32MX795F512L.a(port_set_pins_digital_out_lib.o)
 .debug_str     0x00004178        0x0 c:/program files (x86)/microchip/xc32/v1.34/bin/bin/../../lib/gcc/pic32mx/4.5.2/../../../../pic32mx/lib\libmchp_peripheral_32MX795F512L.a(_ports_tbl_libp.o)
 .debug_str     0x00004178        0x0 c:/program files (x86)/microchip/xc32/v1.34/bin/bin/../../lib/gcc/pic32mx/4.5.2/../../../../pic32mx/lib\libmchp_peripheral_32MX795F512L.a(int_enable_interrupts_lib.o)
 .debug_str     0x00004178        0x0 c:/program files (x86)/microchip/xc32/v1.34/bin/bin/../../lib/gcc/pic32mx/4.5.2\libgcc.a(_udivdi3.o)
 .debug_str     0x00004178        0x0 c:/program files (x86)/microchip/xc32/v1.34/bin/bin/../../lib/gcc/pic32mx/4.5.2\libgcc.a(_umoddi3.o)
 .debug_str     0x00004178        0x0 c:/program files (x86)/microchip/xc32/v1.34/bin/bin/../../lib/gcc/pic32mx/4.5.2/../../../../pic32mx/lib\libpic32.a(default-bootstrap-exception-handler.o)
 .debug_str     0x00004178        0x0 c:/program files (x86)/microchip/xc32/v1.34/bin/bin/../../lib/gcc/pic32mx/4.5.2/../../../../pic32mx/lib\libpic32.a(default-on-reset.o)
 .debug_str     0x00004178        0x0 c:/program files (x86)/microchip/xc32/v1.34/bin/bin/../../lib/gcc/pic32mx/4.5.2/../../../../pic32mx/lib\libpic32.a(default-on-bootstrap.o)
 .debug_str     0x00004178        0x0 c:/program files (x86)/microchip/xc32/v1.34/bin/bin/../../lib/gcc/pic32mx/4.5.2/../../../../pic32mx/lib\libpic32.a(defaultinterrupt.o)
 .debug_str     0x00004178        0x0 c:/program files (x86)/microchip/xc32/v1.34/bin/bin/../../lib/gcc/pic32mx/4.5.2/../../../../pic32mx/lib\libc.a(calloc.o)
 .debug_str     0x00004178        0x0 c:/program files (x86)/microchip/xc32/v1.34/bin/bin/../../lib/gcc/pic32mx/4.5.2/../../../../pic32mx/lib\libc.a(malloc.o)
 .debug_str     0x00004178        0x0 c:/program files (x86)/microchip/xc32/v1.34/bin/bin/../../lib/gcc/pic32mx/4.5.2/../../../../pic32mx/lib\libc.a(strncpy.o)
 .debug_str     0x00004178        0x0 c:/program files (x86)/microchip/xc32/v1.34/bin/bin/../../lib/gcc/pic32mx/4.5.2/../../../../pic32mx/lib\libpic32.a(sbrk.o)
 .debug_str     0x00004178        0x0 c:/program files (x86)/microchip/xc32/v1.34/bin/bin/../../lib/gcc/pic32mx/4.5.2/../../../../pic32mx/lib\libpic32.a(errno.o)

.debug_loc      0x00000000     0x13fc
 *(.debug_loc)
 .debug_loc     0x00000000      0xa62 c:/program files (x86)/microchip/xc32/v1.34/bin/bin/../../lib/gcc/pic32mx/4.5.2\libgcc.a(_udivdi3.o)
 .debug_loc     0x00000a62      0x99a c:/program files (x86)/microchip/xc32/v1.34/bin/bin/../../lib/gcc/pic32mx/4.5.2\libgcc.a(_umoddi3.o)

.debug_macinfo
 *(.debug_macinfo)

.debug_weaknames
 *(.debug_weaknames)

.debug_funcnames
 *(.debug_funcnames)

.debug_typenames
 *(.debug_typenames)

.debug_varnames
 *(.debug_varnames)

.debug_pubtypes
                0x00000000     0x3858
 *(.debug_pubtypes)
 .debug_pubtypes
                0x00000000       0xe7 build/XC32-PIC32_ETH_SK_ETH795/production/_ext/1954962658/ARCFOUR.o
 .debug_pubtypes
                0x000000e7      0x17e build/XC32-PIC32_ETH_SK_ETH795/production/_ext/1954962658/ARP.o
 .debug_pubtypes
                0x00000265       0xe7 build/XC32-PIC32_ETH_SK_ETH795/production/_ext/1954962658/Announce.o
 .debug_pubtypes
                0x0000034c       0xe7 build/XC32-PIC32_ETH_SK_ETH795/production/_ext/1954962658/AutoIP.o
 .debug_pubtypes
                0x00000433       0xe7 build/XC32-PIC32_ETH_SK_ETH795/production/_ext/1954962658/BerkeleyAPI.o
 .debug_pubtypes
                0x0000051a       0xe7 build/XC32-PIC32_ETH_SK_ETH795/production/_ext/1954962658/BigInt.o
 .debug_pubtypes
                0x00000601      0x1d8 build/XC32-PIC32_ETH_SK_ETH795/production/_ext/1954962658/DHCP.o
 .debug_pubtypes
                0x000007d9       0xe7 build/XC32-PIC32_ETH_SK_ETH795/production/_ext/1954962658/DHCPs.o
 .debug_pubtypes
                0x000008c0       0xe7 build/XC32-PIC32_ETH_SK_ETH795/production/_ext/1954962658/DNS.o
 .debug_pubtypes
                0x000009a7       0xe7 build/XC32-PIC32_ETH_SK_ETH795/production/_ext/1954962658/DNSs.o
 .debug_pubtypes
                0x00000a8e       0xfa build/XC32-PIC32_ETH_SK_ETH795/production/_ext/1954962658/Delay.o
 .debug_pubtypes
                0x00000b88       0xe7 build/XC32-PIC32_ETH_SK_ETH795/production/_ext/1954962658/DynDNS.o
 .debug_pubtypes
                0x00000c6f       0xe7 build/XC32-PIC32_ETH_SK_ETH795/production/_ext/1954962658/ENC28J60.o
 .debug_pubtypes
                0x00000d56       0xe7 build/XC32-PIC32_ETH_SK_ETH795/production/_ext/1954962658/ENCX24J600.o
 .debug_pubtypes
                0x00000e3d      0x1ae build/XC32-PIC32_ETH_SK_ETH795/production/_ext/1954962658/ETHPIC32ExtPhy.o
 .debug_pubtypes
                0x00000feb      0x119 build/XC32-PIC32_ETH_SK_ETH795/production/_ext/1954962658/ETHPIC32ExtPhyDP83848.o
 .debug_pubtypes
                0x00001104      0x1f6 build/XC32-PIC32_ETH_SK_ETH795/production/_ext/1954962658/ETHPIC32IntMac.o
 .debug_pubtypes
                0x000012fa       0xe7 build/XC32-PIC32_ETH_SK_ETH795/production/_ext/1954962658/FTP.o
 .debug_pubtypes
                0x000013e1       0xe7 build/XC32-PIC32_ETH_SK_ETH795/production/_ext/1954962658/FileSystem.o
 .debug_pubtypes
                0x000014c8       0xe7 build/XC32-PIC32_ETH_SK_ETH795/production/_ext/1954962658/HTTP2.o
 .debug_pubtypes
                0x000015af       0xe7 build/XC32-PIC32_ETH_SK_ETH795/production/_ext/1954962658/Hashes.o
 .debug_pubtypes
                0x00001696      0x167 build/XC32-PIC32_ETH_SK_ETH795/production/_ext/1954962658/Helpers.o
 .debug_pubtypes
                0x000017fd      0x139 build/XC32-PIC32_ETH_SK_ETH795/production/_ext/1954962658/ICMP.o
 .debug_pubtypes
                0x00001936      0x18c build/XC32-PIC32_ETH_SK_ETH795/production/_ext/1954962658/IP.o
 .debug_pubtypes
                0x00001ac2       0xe7 build/XC32-PIC32_ETH_SK_ETH795/production/_ext/1954962658/LCDBlocking.o
 .debug_pubtypes
                0x00001ba9       0xe7 build/XC32-PIC32_ETH_SK_ETH795/production/_ext/1954962658/MPFS2.o
 .debug_pubtypes
                0x00001c90       0xe7 build/XC32-PIC32_ETH_SK_ETH795/production/_ext/1954962658/NBNS.o
 .debug_pubtypes
                0x00001d77       0xe7 build/XC32-PIC32_ETH_SK_ETH795/production/_ext/1954962658/RSA.o
 .debug_pubtypes
                0x00001e5e       0xe7 build/XC32-PIC32_ETH_SK_ETH795/production/_ext/1954962658/Random.o
 .debug_pubtypes
                0x00001f45       0xe7 build/XC32-PIC32_ETH_SK_ETH795/production/_ext/1954962658/Reboot.o
 .debug_pubtypes
                0x0000202c       0xe7 build/XC32-PIC32_ETH_SK_ETH795/production/_ext/1954962658/SMTP.o
 .debug_pubtypes
                0x00002113       0xe7 build/XC32-PIC32_ETH_SK_ETH795/production/_ext/1954962658/SNMP.o
 .debug_pubtypes
                0x000021fa       0xe7 build/XC32-PIC32_ETH_SK_ETH795/production/_ext/1954962658/SNMPv3.o
 .debug_pubtypes
                0x000022e1       0xe7 build/XC32-PIC32_ETH_SK_ETH795/production/_ext/1954962658/SNMPv3USM.o
 .debug_pubtypes
                0x000023c8       0xe7 build/XC32-PIC32_ETH_SK_ETH795/production/_ext/1954962658/SNTP.o
 .debug_pubtypes
                0x000024af       0xe7 build/XC32-PIC32_ETH_SK_ETH795/production/_ext/1954962658/SPIEEPROM.o
 .debug_pubtypes
                0x00002596       0xe7 build/XC32-PIC32_ETH_SK_ETH795/production/_ext/1954962658/SPIFlash.o
 .debug_pubtypes
                0x0000267d       0xe7 build/XC32-PIC32_ETH_SK_ETH795/production/_ext/1954962658/SPIRAM.o
 .debug_pubtypes
                0x00002764       0xe7 build/XC32-PIC32_ETH_SK_ETH795/production/_ext/1954962658/SSL.o
 .debug_pubtypes
                0x0000284b      0x17c build/XC32-PIC32_ETH_SK_ETH795/production/_ext/1954962658/StackTsk.o
 .debug_pubtypes
                0x000029c7       0xf9 build/XC32-PIC32_ETH_SK_ETH795/production/_ext/1954962658/TCP.o
 .debug_pubtypes
                0x00002ac0       0xe7 build/XC32-PIC32_ETH_SK_ETH795/production/_ext/1954962658/TCPPerformanceTest.o
 .debug_pubtypes
                0x00002ba7       0xe7 build/XC32-PIC32_ETH_SK_ETH795/production/_ext/1954962658/TFTPc.o
 .debug_pubtypes
                0x00002c8e       0xe7 build/XC32-PIC32_ETH_SK_ETH795/production/_ext/1954962658/Telnet.o
 .debug_pubtypes
                0x00002d75      0x144 build/XC32-PIC32_ETH_SK_ETH795/production/_ext/1954962658/Tick.o
 .debug_pubtypes
                0x00002eb9       0xe7 build/XC32-PIC32_ETH_SK_ETH795/production/_ext/1954962658/UART.o
 .debug_pubtypes
                0x00002fa0       0xe7 build/XC32-PIC32_ETH_SK_ETH795/production/_ext/1954962658/UART2TCPBridge.o
 .debug_pubtypes
                0x00003087      0x1eb build/XC32-PIC32_ETH_SK_ETH795/production/_ext/1954962658/UDP.o
 .debug_pubtypes
                0x00003272       0xe7 build/XC32-PIC32_ETH_SK_ETH795/production/_ext/1954962658/UDPPerformanceTest.o
 .debug_pubtypes
                0x00003359       0xe7 build/XC32-PIC32_ETH_SK_ETH795/production/_ext/1954962658/ZeroconfHelper.o
 .debug_pubtypes
                0x00003440       0xe7 build/XC32-PIC32_ETH_SK_ETH795/production/_ext/1954962658/ZeroconfLinkLocal.o
 .debug_pubtypes
                0x00003527       0xe7 build/XC32-PIC32_ETH_SK_ETH795/production/_ext/1954962658/ZeroconfMulticastDNS.o
 .debug_pubtypes
                0x0000360e      0x198 build/XC32-PIC32_ETH_SK_ETH795/production/_ext/1472/MainDemo.o
 .debug_pubtypes
                0x000037a6       0x59 c:/program files (x86)/microchip/xc32/v1.34/bin/bin/../../lib/gcc/pic32mx/4.5.2\libgcc.a(_udivdi3.o)
 .debug_pubtypes
                0x000037ff       0x59 c:/program files (x86)/microchip/xc32/v1.34/bin/bin/../../lib/gcc/pic32mx/4.5.2\libgcc.a(_umoddi3.o)

.debug_ranges   0x00000000      0x500
 *(.debug_ranges)
 .debug_ranges  0x00000000       0x30 build/XC32-PIC32_ETH_SK_ETH795/production/_ext/1472/MainDemo.o
 .debug_ranges  0x00000030       0x10 c:/program files (x86)/microchip/xc32/v1.34/bin/bin/../../lib/gcc/pic32mx/4.5.2/../../../../pic32mx/lib\libmchp_peripheral.a(read_core_timer_lib.o)
 .debug_ranges  0x00000040       0x38 c:/program files (x86)/microchip/xc32/v1.34/bin/bin/../../lib/gcc/pic32mx/4.5.2/../../../../pic32mx/lib\libmchp_peripheral_32MX795F512L.a(eth_ack_packet_lib.o)
 .debug_ranges  0x00000078       0x18 c:/program files (x86)/microchip/xc32/v1.34/bin/bin/../../lib/gcc/pic32mx/4.5.2/../../../../pic32mx/lib\libmchp_peripheral_32MX795F512L.a(eth_descriptors_add_lib.o)
 .debug_ranges  0x00000090       0x10 c:/program files (x86)/microchip/xc32/v1.34/bin/bin/../../lib/gcc/pic32mx/4.5.2/../../../../pic32mx/lib\libmchp_peripheral_32MX795F512L.a(eth_init_lib.o)
 .debug_ranges  0x000000a0       0x10 c:/program files (x86)/microchip/xc32/v1.34/bin/bin/../../lib/gcc/pic32mx/4.5.2/../../../../pic32mx/lib\libmchp_peripheral_32MX795F512L.a(eth_mac_open_lib.o)
 .debug_ranges  0x000000b0       0x20 c:/program files (x86)/microchip/xc32/v1.34/bin/bin/../../lib/gcc/pic32mx/4.5.2/../../../../pic32mx/lib\libmchp_peripheral_32MX795F512L.a(eth_mac_set_address_max_lib.o)
 .debug_ranges  0x000000d0       0x10 c:/program files (x86)/microchip/xc32/v1.34/bin/bin/../../lib/gcc/pic32mx/4.5.2/../../../../pic32mx/lib\libmchp_peripheral_32MX795F512L.a(eth_rx_buffers_append_lib.o)
 .debug_ranges  0x000000e0       0x38 c:/program files (x86)/microchip/xc32/v1.34/bin/bin/../../lib/gcc/pic32mx/4.5.2/../../../../pic32mx/lib\libmchp_peripheral_32MX795F512L.a(eth_rx_filters_lib.o)
 .debug_ranges  0x00000118       0x18 c:/program files (x86)/microchip/xc32/v1.34/bin/bin/../../lib/gcc/pic32mx/4.5.2/../../../../pic32mx/lib\libmchp_peripheral_32MX795F512L.a(eth_rx_get_packet_lib.o)
 .debug_ranges  0x00000130       0x10 c:/program files (x86)/microchip/xc32/v1.34/bin/bin/../../lib/gcc/pic32mx/4.5.2/../../../../pic32mx/lib\libmchp_peripheral_32MX795F512L.a(eth_rx_set_buffer_size_lib.o)
 .debug_ranges  0x00000140       0x38 c:/program files (x86)/microchip/xc32/v1.34/bin/bin/../../lib/gcc/pic32mx/4.5.2/../../../../pic32mx/lib\libmchp_peripheral_32MX795F512L.a(eth_tx_packet_lib.o)
 .debug_ranges  0x00000178       0x10 c:/program files (x86)/microchip/xc32/v1.34/bin/bin/../../lib/gcc/pic32mx/4.5.2/../../../../pic32mx/lib\libmchp_peripheral_32MX795F512L.a(_eth_append_busy_list_lib.o)
 .debug_ranges  0x00000188       0x38 c:/program files (x86)/microchip/xc32/v1.34/bin/bin/../../lib/gcc/pic32mx/4.5.2/../../../../pic32mx/lib\libmchp_peripheral_32MX795F512L.a(eth_miim_access.o)
 .debug_ranges  0x000001c0       0x18 c:/program files (x86)/microchip/xc32/v1.34/bin/bin/../../lib/gcc/pic32mx/4.5.2/../../../../pic32mx/lib\libmchp_peripheral_32MX795F512L.a(pcache.o)
 .debug_ranges  0x000001d8       0x10 c:/program files (x86)/microchip/xc32/v1.34/bin/bin/../../lib/gcc/pic32mx/4.5.2/../../../../pic32mx/lib\libmchp_peripheral_32MX795F512L.a(int_disable_interrupts_lib.o)
 .debug_ranges  0x000001e8       0x10 c:/program files (x86)/microchip/xc32/v1.34/bin/bin/../../lib/gcc/pic32mx/4.5.2/../../../../pic32mx/lib\libmchp_peripheral_32MX795F512L.a(int_restore_interrupts_lib.o)
 .debug_ranges  0x000001f8       0x10 c:/program files (x86)/microchip/xc32/v1.34/bin/bin/../../lib/gcc/pic32mx/4.5.2/../../../../pic32mx/lib\libmchp_peripheral_32MX795F512L.a(int_enable_mv_int_lib.o)
 .debug_ranges  0x00000208       0x50 c:/program files (x86)/microchip/xc32/v1.34/bin/bin/../../lib/gcc/pic32mx/4.5.2/../../../../pic32mx/lib\libmchp_peripheral_32MX795F512L.a(int_tbl_lib.o)
 .debug_ranges  0x00000258       0x10 c:/program files (x86)/microchip/xc32/v1.34/bin/bin/../../lib/gcc/pic32mx/4.5.2/../../../../pic32mx/lib\libmchp_peripheral_32MX795F512L.a(port_set_pins_digital_in_lib.o)
 .debug_ranges  0x00000268       0x10 c:/program files (x86)/microchip/xc32/v1.34/bin/bin/../../lib/gcc/pic32mx/4.5.2/../../../../pic32mx/lib\libmchp_peripheral_32MX795F512L.a(port_set_pins_digital_out_lib.o)
 .debug_ranges  0x00000278       0x10 c:/program files (x86)/microchip/xc32/v1.34/bin/bin/../../lib/gcc/pic32mx/4.5.2/../../../../pic32mx/lib\libmchp_peripheral_32MX795F512L.a(int_enable_interrupts_lib.o)
 .debug_ranges  0x00000288       0xe8 c:/program files (x86)/microchip/xc32/v1.34/bin/bin/../../lib/gcc/pic32mx/4.5.2\libgcc.a(_udivdi3.o)
 .debug_ranges  0x00000370       0xe0 c:/program files (x86)/microchip/xc32/v1.34/bin/bin/../../lib/gcc/pic32mx/4.5.2\libgcc.a(_umoddi3.o)
 .debug_ranges  0x00000450       0x10 c:/program files (x86)/microchip/xc32/v1.34/bin/bin/../../lib/gcc/pic32mx/4.5.2/../../../../pic32mx/lib\libpic32.a(default-bootstrap-exception-handler.o)
 .debug_ranges  0x00000460       0x10 c:/program files (x86)/microchip/xc32/v1.34/bin/bin/../../lib/gcc/pic32mx/4.5.2/../../../../pic32mx/lib\libpic32.a(default-on-reset.o)
 .debug_ranges  0x00000470       0x10 c:/program files (x86)/microchip/xc32/v1.34/bin/bin/../../lib/gcc/pic32mx/4.5.2/../../../../pic32mx/lib\libpic32.a(default-on-bootstrap.o)
 .debug_ranges  0x00000480       0x10 c:/program files (x86)/microchip/xc32/v1.34/bin/bin/../../lib/gcc/pic32mx/4.5.2/../../../../pic32mx/lib\libpic32.a(defaultinterrupt.o)
 .debug_ranges  0x00000490       0x10 c:/program files (x86)/microchip/xc32/v1.34/bin/bin/../../lib/gcc/pic32mx/4.5.2/../../../../pic32mx/lib\libc.a(calloc.o)
 .debug_ranges  0x000004a0       0x20 c:/program files (x86)/microchip/xc32/v1.34/bin/bin/../../lib/gcc/pic32mx/4.5.2/../../../../pic32mx/lib\libc.a(malloc.o)
 .debug_ranges  0x000004c0       0x10 c:/program files (x86)/microchip/xc32/v1.34/bin/bin/../../lib/gcc/pic32mx/4.5.2/../../../../pic32mx/lib\libc.a(strncpy.o)
 .debug_ranges  0x000004d0       0x30 c:/program files (x86)/microchip/xc32/v1.34/bin/bin/../../lib/gcc/pic32mx/4.5.2/../../../../pic32mx/lib\libpic32.a(sbrk.o)

.gnu.attributes
                0x00000000       0x10
 *(.gnu.attributes)
 .gnu.attributes
                0x00000000       0x10 build/XC32-PIC32_ETH_SK_ETH795/production/_ext/1954962658/ARCFOUR.o
 .gnu.attributes
                0x00000010       0x10 build/XC32-PIC32_ETH_SK_ETH795/production/_ext/1954962658/ARP.o
 .gnu.attributes
                0x00000020       0x10 build/XC32-PIC32_ETH_SK_ETH795/production/_ext/1954962658/Announce.o
 .gnu.attributes
                0x00000030       0x10 build/XC32-PIC32_ETH_SK_ETH795/production/_ext/1954962658/AutoIP.o
 .gnu.attributes
                0x00000040       0x10 build/XC32-PIC32_ETH_SK_ETH795/production/_ext/1954962658/BerkeleyAPI.o
 .gnu.attributes
                0x00000050       0x10 build/XC32-PIC32_ETH_SK_ETH795/production/_ext/1954962658/BigInt.o
 .gnu.attributes
                0x00000060       0x10 build/XC32-PIC32_ETH_SK_ETH795/production/_ext/1954962658/DHCP.o
 .gnu.attributes
                0x00000070       0x10 build/XC32-PIC32_ETH_SK_ETH795/production/_ext/1954962658/DHCPs.o
 .gnu.attributes
                0x00000080       0x10 build/XC32-PIC32_ETH_SK_ETH795/production/_ext/1954962658/DNS.o
 .gnu.attributes
                0x00000090       0x10 build/XC32-PIC32_ETH_SK_ETH795/production/_ext/1954962658/DNSs.o
 .gnu.attributes
                0x000000a0       0x10 build/XC32-PIC32_ETH_SK_ETH795/production/_ext/1954962658/Delay.o
 .gnu.attributes
                0x000000b0       0x10 build/XC32-PIC32_ETH_SK_ETH795/production/_ext/1954962658/DynDNS.o
 .gnu.attributes
                0x000000c0       0x10 build/XC32-PIC32_ETH_SK_ETH795/production/_ext/1954962658/ENC28J60.o
 .gnu.attributes
                0x000000d0       0x10 build/XC32-PIC32_ETH_SK_ETH795/production/_ext/1954962658/ENCX24J600.o
 .gnu.attributes
                0x000000e0       0x10 build/XC32-PIC32_ETH_SK_ETH795/production/_ext/1954962658/ETHPIC32ExtPhy.o
 .gnu.attributes
                0x000000f0       0x10 build/XC32-PIC32_ETH_SK_ETH795/production/_ext/1954962658/ETHPIC32ExtPhyDP83848.o
 .gnu.attributes
                0x00000100       0x10 build/XC32-PIC32_ETH_SK_ETH795/production/_ext/1954962658/ETHPIC32IntMac.o
 .gnu.attributes
                0x00000110       0x10 build/XC32-PIC32_ETH_SK_ETH795/production/_ext/1954962658/FTP.o
 .gnu.attributes
                0x00000120       0x10 build/XC32-PIC32_ETH_SK_ETH795/production/_ext/1954962658/FileSystem.o
 .gnu.attributes
                0x00000130       0x10 build/XC32-PIC32_ETH_SK_ETH795/production/_ext/1954962658/HTTP2.o
 .gnu.attributes
                0x00000140       0x10 build/XC32-PIC32_ETH_SK_ETH795/production/_ext/1954962658/Hashes.o
 .gnu.attributes
                0x00000150       0x10 build/XC32-PIC32_ETH_SK_ETH795/production/_ext/1954962658/Helpers.o
 .gnu.attributes
                0x00000160       0x10 build/XC32-PIC32_ETH_SK_ETH795/production/_ext/1954962658/ICMP.o
 .gnu.attributes
                0x00000170       0x10 build/XC32-PIC32_ETH_SK_ETH795/production/_ext/1954962658/IP.o
 .gnu.attributes
                0x00000180       0x10 build/XC32-PIC32_ETH_SK_ETH795/production/_ext/1954962658/LCDBlocking.o
 .gnu.attributes
                0x00000190       0x10 build/XC32-PIC32_ETH_SK_ETH795/production/_ext/1954962658/MPFS2.o
 .gnu.attributes
                0x000001a0       0x10 build/XC32-PIC32_ETH_SK_ETH795/production/_ext/1954962658/NBNS.o
 .gnu.attributes
                0x000001b0       0x10 build/XC32-PIC32_ETH_SK_ETH795/production/_ext/1954962658/RSA.o
 .gnu.attributes
                0x000001c0       0x10 build/XC32-PIC32_ETH_SK_ETH795/production/_ext/1954962658/Random.o
 .gnu.attributes
                0x000001d0       0x10 build/XC32-PIC32_ETH_SK_ETH795/production/_ext/1954962658/Reboot.o
 .gnu.attributes
                0x000001e0       0x10 build/XC32-PIC32_ETH_SK_ETH795/production/_ext/1954962658/SMTP.o
 .gnu.attributes
                0x000001f0       0x10 build/XC32-PIC32_ETH_SK_ETH795/production/_ext/1954962658/SNMP.o
 .gnu.attributes
                0x00000200       0x10 build/XC32-PIC32_ETH_SK_ETH795/production/_ext/1954962658/SNMPv3.o
 .gnu.attributes
                0x00000210       0x10 build/XC32-PIC32_ETH_SK_ETH795/production/_ext/1954962658/SNMPv3USM.o
 .gnu.attributes
                0x00000220       0x10 build/XC32-PIC32_ETH_SK_ETH795/production/_ext/1954962658/SNTP.o
 .gnu.attributes
                0x00000230       0x10 build/XC32-PIC32_ETH_SK_ETH795/production/_ext/1954962658/SPIEEPROM.o
 .gnu.attributes
                0x00000240       0x10 build/XC32-PIC32_ETH_SK_ETH795/production/_ext/1954962658/SPIFlash.o
 .gnu.attributes
                0x00000250       0x10 build/XC32-PIC32_ETH_SK_ETH795/production/_ext/1954962658/SPIRAM.o
 .gnu.attributes
                0x00000260       0x10 build/XC32-PIC32_ETH_SK_ETH795/production/_ext/1954962658/SSL.o
 .gnu.attributes
                0x00000270       0x10 build/XC32-PIC32_ETH_SK_ETH795/production/_ext/1954962658/StackTsk.o
 .gnu.attributes
                0x00000280       0x10 build/XC32-PIC32_ETH_SK_ETH795/production/_ext/1954962658/TCP.o
 .gnu.attributes
                0x00000290       0x10 build/XC32-PIC32_ETH_SK_ETH795/production/_ext/1954962658/TCPPerformanceTest.o
 .gnu.attributes
                0x000002a0       0x10 build/XC32-PIC32_ETH_SK_ETH795/production/_ext/1954962658/TFTPc.o
 .gnu.attributes
                0x000002b0       0x10 build/XC32-PIC32_ETH_SK_ETH795/production/_ext/1954962658/Telnet.o
 .gnu.attributes
                0x000002c0       0x10 build/XC32-PIC32_ETH_SK_ETH795/production/_ext/1954962658/Tick.o
 .gnu.attributes
                0x000002d0       0x10 build/XC32-PIC32_ETH_SK_ETH795/production/_ext/1954962658/UART.o
 .gnu.attributes
                0x000002e0       0x10 build/XC32-PIC32_ETH_SK_ETH795/production/_ext/1954962658/UART2TCPBridge.o
 .gnu.attributes
                0x000002f0       0x10 build/XC32-PIC32_ETH_SK_ETH795/production/_ext/1954962658/UDP.o
 .gnu.attributes
                0x00000300       0x10 build/XC32-PIC32_ETH_SK_ETH795/production/_ext/1954962658/UDPPerformanceTest.o
 .gnu.attributes
                0x00000310       0x10 build/XC32-PIC32_ETH_SK_ETH795/production/_ext/1954962658/ZeroconfHelper.o
 .gnu.attributes
                0x00000320       0x10 build/XC32-PIC32_ETH_SK_ETH795/production/_ext/1954962658/ZeroconfLinkLocal.o
 .gnu.attributes
                0x00000330       0x10 build/XC32-PIC32_ETH_SK_ETH795/production/_ext/1954962658/ZeroconfMulticastDNS.o
 .gnu.attributes
                0x00000340       0x10 build/XC32-PIC32_ETH_SK_ETH795/production/_ext/1472/MainDemo.o
 .gnu.attributes
                0x00000350       0x10 c:/program files (x86)/microchip/xc32/v1.34/bin/bin/../../lib/gcc/pic32mx/4.5.2/../../../../pic32mx/lib\libmchp_peripheral.a(read_core_timer_lib.o)
 .gnu.attributes
                0x00000360       0x10 c:/program files (x86)/microchip/xc32/v1.34/bin/bin/../../lib/gcc/pic32mx/4.5.2/../../../../pic32mx/lib\libmchp_peripheral_32MX795F512L.a(eth_ack_packet_lib.o)
 .gnu.attributes
                0x00000370       0x10 c:/program files (x86)/microchip/xc32/v1.34/bin/bin/../../lib/gcc/pic32mx/4.5.2/../../../../pic32mx/lib\libmchp_peripheral_32MX795F512L.a(eth_descriptors_add_lib.o)
 .gnu.attributes
                0x00000380       0x10 c:/program files (x86)/microchip/xc32/v1.34/bin/bin/../../lib/gcc/pic32mx/4.5.2/../../../../pic32mx/lib\libmchp_peripheral_32MX795F512L.a(eth_init_lib.o)
 .gnu.attributes
                0x00000390       0x10 c:/program files (x86)/microchip/xc32/v1.34/bin/bin/../../lib/gcc/pic32mx/4.5.2/../../../../pic32mx/lib\libmchp_peripheral_32MX795F512L.a(eth_mac_open_lib.o)
 .gnu.attributes
                0x000003a0       0x10 c:/program files (x86)/microchip/xc32/v1.34/bin/bin/../../lib/gcc/pic32mx/4.5.2/../../../../pic32mx/lib\libmchp_peripheral_32MX795F512L.a(eth_mac_set_address_max_lib.o)
 .gnu.attributes
                0x000003b0       0x10 c:/program files (x86)/microchip/xc32/v1.34/bin/bin/../../lib/gcc/pic32mx/4.5.2/../../../../pic32mx/lib\libmchp_peripheral_32MX795F512L.a(eth_rx_buffers_append_lib.o)
 .gnu.attributes
                0x000003c0       0x10 c:/program files (x86)/microchip/xc32/v1.34/bin/bin/../../lib/gcc/pic32mx/4.5.2/../../../../pic32mx/lib\libmchp_peripheral_32MX795F512L.a(eth_rx_filters_lib.o)
 .gnu.attributes
                0x000003d0       0x10 c:/program files (x86)/microchip/xc32/v1.34/bin/bin/../../lib/gcc/pic32mx/4.5.2/../../../../pic32mx/lib\libmchp_peripheral_32MX795F512L.a(eth_rx_get_packet_lib.o)
 .gnu.attributes
                0x000003e0       0x10 c:/program files (x86)/microchip/xc32/v1.34/bin/bin/../../lib/gcc/pic32mx/4.5.2/../../../../pic32mx/lib\libmchp_peripheral_32MX795F512L.a(eth_rx_set_buffer_size_lib.o)
 .gnu.attributes
                0x000003f0       0x10 c:/program files (x86)/microchip/xc32/v1.34/bin/bin/../../lib/gcc/pic32mx/4.5.2/../../../../pic32mx/lib\libmchp_peripheral_32MX795F512L.a(eth_tx_packet_lib.o)
 .gnu.attributes
                0x00000400       0x10 c:/program files (x86)/microchip/xc32/v1.34/bin/bin/../../lib/gcc/pic32mx/4.5.2/../../../../pic32mx/lib\libmchp_peripheral_32MX795F512L.a(_eth_append_busy_list_lib.o)
 .gnu.attributes
                0x00000410       0x10 c:/program files (x86)/microchip/xc32/v1.34/bin/bin/../../lib/gcc/pic32mx/4.5.2/../../../../pic32mx/lib\libmchp_peripheral_32MX795F512L.a(eth_miim_access.o)
 .gnu.attributes
                0x00000420       0x10 c:/program files (x86)/microchip/xc32/v1.34/bin/bin/../../lib/gcc/pic32mx/4.5.2/../../../../pic32mx/lib\libmchp_peripheral_32MX795F512L.a(pcache.o)
 .gnu.attributes
                0x00000430       0x10 c:/program files (x86)/microchip/xc32/v1.34/bin/bin/../../lib/gcc/pic32mx/4.5.2/../../../../pic32mx/lib\libmchp_peripheral_32MX795F512L.a(int_disable_interrupts_lib.o)
 .gnu.attributes
                0x00000440       0x10 c:/program files (x86)/microchip/xc32/v1.34/bin/bin/../../lib/gcc/pic32mx/4.5.2/../../../../pic32mx/lib\libmchp_peripheral_32MX795F512L.a(int_restore_interrupts_lib.o)
 .gnu.attributes
                0x00000450       0x10 c:/program files (x86)/microchip/xc32/v1.34/bin/bin/../../lib/gcc/pic32mx/4.5.2/../../../../pic32mx/lib\libmchp_peripheral_32MX795F512L.a(int_enable_mv_int_lib.o)
 .gnu.attributes
                0x00000460       0x10 c:/program files (x86)/microchip/xc32/v1.34/bin/bin/../../lib/gcc/pic32mx/4.5.2/../../../../pic32mx/lib\libmchp_peripheral_32MX795F512L.a(int_tbl_lib.o)
 .gnu.attributes
                0x00000470       0x10 c:/program files (x86)/microchip/xc32/v1.34/bin/bin/../../lib/gcc/pic32mx/4.5.2/../../../../pic32mx/lib\libmchp_peripheral_32MX795F512L.a(port_set_pins_digital_in_lib.o)
 .gnu.attributes
                0x00000480       0x10 c:/program files (x86)/microchip/xc32/v1.34/bin/bin/../../lib/gcc/pic32mx/4.5.2/../../../../pic32mx/lib\libmchp_peripheral_32MX795F512L.a(port_set_pins_digital_out_lib.o)
 .gnu.attributes
                0x00000490       0x10 c:/program files (x86)/microchip/xc32/v1.34/bin/bin/../../lib/gcc/pic32mx/4.5.2/../../../../pic32mx/lib\libmchp_peripheral_32MX795F512L.a(_ports_tbl_libp.o)
 .gnu.attributes
                0x000004a0       0x10 c:/program files (x86)/microchip/xc32/v1.34/bin/bin/../../lib/gcc/pic32mx/4.5.2/../../../../pic32mx/lib\libmchp_peripheral_32MX795F512L.a(int_enable_interrupts_lib.o)
 .gnu.attributes
                0x000004b0       0x10 c:/program files (x86)/microchip/xc32/v1.34/bin/bin/../../lib/gcc/pic32mx/4.5.2\libgcc.a(_udivdi3.o)
 .gnu.attributes
                0x000004c0       0x10 c:/program files (x86)/microchip/xc32/v1.34/bin/bin/../../lib/gcc/pic32mx/4.5.2\libgcc.a(_umoddi3.o)
 .gnu.attributes
                0x000004d0       0x10 c:/program files (x86)/microchip/xc32/v1.34/bin/bin/../../lib/gcc/pic32mx/4.5.2/../../../../pic32mx/lib\libpic32.a(default-bootstrap-exception-handler.o)
 .gnu.attributes
                0x000004e0       0x10 c:/program files (x86)/microchip/xc32/v1.34/bin/bin/../../lib/gcc/pic32mx/4.5.2/../../../../pic32mx/lib\libpic32.a(default-on-reset.o)
 .gnu.attributes
                0x000004f0       0x10 c:/program files (x86)/microchip/xc32/v1.34/bin/bin/../../lib/gcc/pic32mx/4.5.2/../../../../pic32mx/lib\libpic32.a(default-on-bootstrap.o)
 .gnu.attributes
                0x00000500       0x10 c:/program files (x86)/microchip/xc32/v1.34/bin/bin/../../lib/gcc/pic32mx/4.5.2/../../../../pic32mx/lib\libpic32.a(defaultinterrupt.o)
 .gnu.attributes
                0x00000510       0x10 c:/program files (x86)/microchip/xc32/v1.34/bin/bin/../../lib/gcc/pic32mx/4.5.2/../../../../pic32mx/lib\libc.a(calloc.o)
 .gnu.attributes
                0x00000520       0x10 c:/program files (x86)/microchip/xc32/v1.34/bin/bin/../../lib/gcc/pic32mx/4.5.2/../../../../pic32mx/lib\libc.a(malloc.o)
 .gnu.attributes
                0x00000530       0x10 c:/program files (x86)/microchip/xc32/v1.34/bin/bin/../../lib/gcc/pic32mx/4.5.2/../../../../pic32mx/lib\libc.a(strncpy.o)
 .gnu.attributes
                0x00000540       0x10 c:/program files (x86)/microchip/xc32/v1.34/bin/bin/../../lib/gcc/pic32mx/4.5.2/../../../../pic32mx/lib\libpic32.a(sbrk.o)
 .gnu.attributes
                0x00000550       0x10 c:/program files (x86)/microchip/xc32/v1.34/bin/bin/../../lib/gcc/pic32mx/4.5.2/../../../../pic32mx/lib\libpic32.a(errno.o)
LOAD c:/program files (x86)/microchip/xc32/v1.34/bin/bin/../../lib/gcc/pic32mx/4.5.2\libgcc.a
START GROUP
LOAD c:/program files (x86)/microchip/xc32/v1.34/bin/bin/../../lib/gcc/pic32mx/4.5.2/../../../../pic32mx/lib\libpic32.a
LOAD c:/program files (x86)/microchip/xc32/v1.34/bin/bin/../../lib/gcc/pic32mx/4.5.2/../../../../pic32mx/lib\libdebug.a
LOAD c:/program files (x86)/microchip/xc32/v1.34/bin/bin/../../lib/gcc/pic32mx/4.5.2/../../../../pic32mx/lib\libpic32.a
LOAD c:/program files (x86)/microchip/xc32/v1.34/bin/bin/../../lib/gcc/pic32mx/4.5.2/../../../../pic32mx/lib\libm.a
LOAD c:/program files (x86)/microchip/xc32/v1.34/bin/bin/../../lib/gcc/pic32mx/4.5.2/../../../../pic32mx/lib\libe.a
LOAD c:/program files (x86)/microchip/xc32/v1.34/bin/bin/../../lib/gcc/pic32mx/4.5.2/../../../../pic32mx/lib\libdsp.a
LOAD c:/program files (x86)/microchip/xc32/v1.34/bin/bin/../../lib/gcc/pic32mx/4.5.2\libgcc.a
LOAD c:/program files (x86)/microchip/xc32/v1.34/bin/bin/../../lib/gcc/pic32mx/4.5.2/../../../../pic32mx/lib\libc.a
LOAD c:/program files (x86)/microchip/xc32/v1.34/bin/bin/../../lib/gcc/pic32mx/4.5.2/../../../../pic32mx/lib\libpic32.a
END GROUP
LOAD c:/program files (x86)/microchip/xc32/v1.34/bin/bin/../../lib/gcc/pic32mx/4.5.2\libgcc.a
OUTPUT(dist/XC32-PIC32_ETH_SK_ETH795/production/MPLAB.X.production.elf elf32-tradlittlemips)
LOAD stack
LOAD data_init

.reginfo        0x00000000       0x18
 .reginfo       0x00000000       0x18 c:/program files (x86)/microchip/xc32/v1.34/bin/bin/../../lib/gcc/pic32mx/4.5.2/../../../../pic32mx/lib/./proc/32MX795F512L/crt0_mips32r2.o

.stack          0xa0007d08      0x800
 .stack         0xa0007d08      0x800 stack

.bss            0xa0000218     0x3c50
 .bss           0xa0000218     0x3be0 build/XC32-PIC32_ETH_SK_ETH795/production/_ext/1954962658/ETHPIC32IntMac.o
 .bss           0xa0003df8       0x2c build/XC32-PIC32_ETH_SK_ETH795/production/_ext/1954962658/DHCP.o
 .bss           0xa0003e24       0x1c c:/program files (x86)/microchip/xc32/v1.34/bin/bin/../../lib/gcc/pic32mx/4.5.2/../../../../pic32mx/lib\libpic32.a(sbrk.o)
 .bss           0xa0003e40       0x18 build/XC32-PIC32_ETH_SK_ETH795/production/_ext/1954962658/ARP.o
 .bss           0xa0003e58       0x10 c:/program files (x86)/microchip/xc32/v1.34/bin/bin/../../lib/gcc/pic32mx/4.5.2/../../../../pic32mx/lib\libc.a(malloc.o)
                0xa0003e58                __allocs

.bss.NextPort.23141
                0xa0003e68        0x2
 .bss.NextPort.23141
                0xa0003e68        0x2 build/XC32-PIC32_ETH_SK_ETH795/production/_ext/1954962658/UDP.o

.bss%z1         0x00000000        0x0
 .bss           0x00000000        0x0 c:/program files (x86)/microchip/xc32/v1.34/bin/bin/../../lib/gcc/pic32mx/4.5.2/../../../../pic32mx/lib\libpic32.a(errno.o)

.data%z2        0x00000000        0x0
 .data          0x00000000        0x0 c:/program files (x86)/microchip/xc32/v1.34/bin/bin/../../lib/gcc/pic32mx/4.5.2/../../../../pic32mx/lib\libpic32.a(errno.o)

.data%z3        0x00000000        0x0
 .data          0x00000000        0x0 c:/program files (x86)/microchip/xc32/v1.34/bin/bin/../../lib/gcc/pic32mx/4.5.2/../../../../pic32mx/lib\libpic32.a(sbrk.o)

.bss%z4         0x00000000        0x0
 .bss           0x00000000        0x0 c:/program files (x86)/microchip/xc32/v1.34/bin/bin/../../lib/gcc/pic32mx/4.5.2/../../../../pic32mx/lib\libc.a(strncpy.o)

.data%z5        0x00000000        0x0
 .data          0x00000000        0x0 c:/program files (x86)/microchip/xc32/v1.34/bin/bin/../../lib/gcc/pic32mx/4.5.2/../../../../pic32mx/lib\libc.a(strncpy.o)

.data%z6        0x00000000        0x0
 .data          0x00000000        0x0 c:/program files (x86)/microchip/xc32/v1.34/bin/bin/../../lib/gcc/pic32mx/4.5.2/../../../../pic32mx/lib\libc.a(malloc.o)

.bss%z7         0x00000000        0x0
 .bss           0x00000000        0x0 c:/program files (x86)/microchip/xc32/v1.34/bin/bin/../../lib/gcc/pic32mx/4.5.2/../../../../pic32mx/lib\libc.a(calloc.o)

.data%z8        0x00000000        0x0
 .data          0x00000000        0x0 c:/program files (x86)/microchip/xc32/v1.34/bin/bin/../../lib/gcc/pic32mx/4.5.2/../../../../pic32mx/lib\libc.a(calloc.o)

.bss%z9         0x00000000        0x0
 .bss           0x00000000        0x0 c:/program files (x86)/microchip/xc32/v1.34/bin/bin/../../lib/gcc/pic32mx/4.5.2/../../../../pic32mx/lib\libpic32.a(defaultinterrupt.o)

.data%z10       0x00000000        0x0
 .data          0x00000000        0x0 c:/program files (x86)/microchip/xc32/v1.34/bin/bin/../../lib/gcc/pic32mx/4.5.2/../../../../pic32mx/lib\libpic32.a(defaultinterrupt.o)

.bss%z11        0x00000000        0x0
 .bss           0x00000000        0x0 c:/program files (x86)/microchip/xc32/v1.34/bin/bin/../../lib/gcc/pic32mx/4.5.2/../../../../pic32mx/lib\libpic32.a(vector51.o)

.data%z12       0x00000000        0x0
 .data          0x00000000        0x0 c:/program files (x86)/microchip/xc32/v1.34/bin/bin/../../lib/gcc/pic32mx/4.5.2/../../../../pic32mx/lib\libpic32.a(vector51.o)

.bss%z13        0x00000000        0x0
 .bss           0x00000000        0x0 c:/program files (x86)/microchip/xc32/v1.34/bin/bin/../../lib/gcc/pic32mx/4.5.2/../../../../pic32mx/lib\libpic32.a(vector50.o)

.data%z14       0x00000000        0x0
 .data          0x00000000        0x0 c:/program files (x86)/microchip/xc32/v1.34/bin/bin/../../lib/gcc/pic32mx/4.5.2/../../../../pic32mx/lib\libpic32.a(vector50.o)

.bss%z15        0x00000000        0x0
 .bss           0x00000000        0x0 c:/program files (x86)/microchip/xc32/v1.34/bin/bin/../../lib/gcc/pic32mx/4.5.2/../../../../pic32mx/lib\libpic32.a(vector49.o)

.data%z16       0x00000000        0x0
 .data          0x00000000        0x0 c:/program files (x86)/microchip/xc32/v1.34/bin/bin/../../lib/gcc/pic32mx/4.5.2/../../../../pic32mx/lib\libpic32.a(vector49.o)

.bss%z17        0x00000000        0x0
 .bss           0x00000000        0x0 c:/program files (x86)/microchip/xc32/v1.34/bin/bin/../../lib/gcc/pic32mx/4.5.2/../../../../pic32mx/lib\libpic32.a(vector48.o)

.data%z18       0x00000000        0x0
 .data          0x00000000        0x0 c:/program files (x86)/microchip/xc32/v1.34/bin/bin/../../lib/gcc/pic32mx/4.5.2/../../../../pic32mx/lib\libpic32.a(vector48.o)

.bss%z19        0x00000000        0x0
 .bss           0x00000000        0x0 c:/program files (x86)/microchip/xc32/v1.34/bin/bin/../../lib/gcc/pic32mx/4.5.2/../../../../pic32mx/lib\libpic32.a(vector47.o)

.data%z20       0x00000000        0x0
 .data          0x00000000        0x0 c:/program files (x86)/microchip/xc32/v1.34/bin/bin/../../lib/gcc/pic32mx/4.5.2/../../../../pic32mx/lib\libpic32.a(vector47.o)

.bss%z21        0x00000000        0x0
 .bss           0x00000000        0x0 c:/program files (x86)/microchip/xc32/v1.34/bin/bin/../../lib/gcc/pic32mx/4.5.2/../../../../pic32mx/lib\libpic32.a(vector46.o)

.data%z22       0x00000000        0x0
 .data          0x00000000        0x0 c:/program files (x86)/microchip/xc32/v1.34/bin/bin/../../lib/gcc/pic32mx/4.5.2/../../../../pic32mx/lib\libpic32.a(vector46.o)

.bss%z23        0x00000000        0x0
 .bss           0x00000000        0x0 c:/program files (x86)/microchip/xc32/v1.34/bin/bin/../../lib/gcc/pic32mx/4.5.2/../../../../pic32mx/lib\libpic32.a(vector45.o)

.data%z24       0x00000000        0x0
 .data          0x00000000        0x0 c:/program files (x86)/microchip/xc32/v1.34/bin/bin/../../lib/gcc/pic32mx/4.5.2/../../../../pic32mx/lib\libpic32.a(vector45.o)

.bss%z25        0x00000000        0x0
 .bss           0x00000000        0x0 c:/program files (x86)/microchip/xc32/v1.34/bin/bin/../../lib/gcc/pic32mx/4.5.2/../../../../pic32mx/lib\libpic32.a(vector44.o)

.data%z26       0x00000000        0x0
 .data          0x00000000        0x0 c:/program files (x86)/microchip/xc32/v1.34/bin/bin/../../lib/gcc/pic32mx/4.5.2/../../../../pic32mx/lib\libpic32.a(vector44.o)

.bss%z27        0x00000000        0x0
 .bss           0x00000000        0x0 c:/program files (x86)/microchip/xc32/v1.34/bin/bin/../../lib/gcc/pic32mx/4.5.2/../../../../pic32mx/lib\libpic32.a(vector43.o)

.data%z28       0x00000000        0x0
 .data          0x00000000        0x0 c:/program files (x86)/microchip/xc32/v1.34/bin/bin/../../lib/gcc/pic32mx/4.5.2/../../../../pic32mx/lib\libpic32.a(vector43.o)

.bss%z29        0x00000000        0x0
 .bss           0x00000000        0x0 c:/program files (x86)/microchip/xc32/v1.34/bin/bin/../../lib/gcc/pic32mx/4.5.2/../../../../pic32mx/lib\libpic32.a(vector42.o)

.data%z30       0x00000000        0x0
 .data          0x00000000        0x0 c:/program files (x86)/microchip/xc32/v1.34/bin/bin/../../lib/gcc/pic32mx/4.5.2/../../../../pic32mx/lib\libpic32.a(vector42.o)

.bss%z31        0x00000000        0x0
 .bss           0x00000000        0x0 c:/program files (x86)/microchip/xc32/v1.34/bin/bin/../../lib/gcc/pic32mx/4.5.2/../../../../pic32mx/lib\libpic32.a(vector41.o)

.data%z32       0x00000000        0x0
 .data          0x00000000        0x0 c:/program files (x86)/microchip/xc32/v1.34/bin/bin/../../lib/gcc/pic32mx/4.5.2/../../../../pic32mx/lib\libpic32.a(vector41.o)

.bss%z33        0x00000000        0x0
 .bss           0x00000000        0x0 c:/program files (x86)/microchip/xc32/v1.34/bin/bin/../../lib/gcc/pic32mx/4.5.2/../../../../pic32mx/lib\libpic32.a(vector40.o)

.data%z34       0x00000000        0x0
 .data          0x00000000        0x0 c:/program files (x86)/microchip/xc32/v1.34/bin/bin/../../lib/gcc/pic32mx/4.5.2/../../../../pic32mx/lib\libpic32.a(vector40.o)

.bss%z35        0x00000000        0x0
 .bss           0x00000000        0x0 c:/program files (x86)/microchip/xc32/v1.34/bin/bin/../../lib/gcc/pic32mx/4.5.2/../../../../pic32mx/lib\libpic32.a(vector39.o)

.data%z36       0x00000000        0x0
 .data          0x00000000        0x0 c:/program files (x86)/microchip/xc32/v1.34/bin/bin/../../lib/gcc/pic32mx/4.5.2/../../../../pic32mx/lib\libpic32.a(vector39.o)

.bss%z37        0x00000000        0x0
 .bss           0x00000000        0x0 c:/program files (x86)/microchip/xc32/v1.34/bin/bin/../../lib/gcc/pic32mx/4.5.2/../../../../pic32mx/lib\libpic32.a(vector38.o)

.data%z38       0x00000000        0x0
 .data          0x00000000        0x0 c:/program files (x86)/microchip/xc32/v1.34/bin/bin/../../lib/gcc/pic32mx/4.5.2/../../../../pic32mx/lib\libpic32.a(vector38.o)

.bss%z39        0x00000000        0x0
 .bss           0x00000000        0x0 c:/program files (x86)/microchip/xc32/v1.34/bin/bin/../../lib/gcc/pic32mx/4.5.2/../../../../pic32mx/lib\libpic32.a(vector37.o)

.data%z40       0x00000000        0x0
 .data          0x00000000        0x0 c:/program files (x86)/microchip/xc32/v1.34/bin/bin/../../lib/gcc/pic32mx/4.5.2/../../../../pic32mx/lib\libpic32.a(vector37.o)

.bss%z41        0x00000000        0x0
 .bss           0x00000000        0x0 c:/program files (x86)/microchip/xc32/v1.34/bin/bin/../../lib/gcc/pic32mx/4.5.2/../../../../pic32mx/lib\libpic32.a(vector36.o)

.data%z42       0x00000000        0x0
 .data          0x00000000        0x0 c:/program files (x86)/microchip/xc32/v1.34/bin/bin/../../lib/gcc/pic32mx/4.5.2/../../../../pic32mx/lib\libpic32.a(vector36.o)

.bss%z43        0x00000000        0x0
 .bss           0x00000000        0x0 c:/program files (x86)/microchip/xc32/v1.34/bin/bin/../../lib/gcc/pic32mx/4.5.2/../../../../pic32mx/lib\libpic32.a(vector35.o)

.data%z44       0x00000000        0x0
 .data          0x00000000        0x0 c:/program files (x86)/microchip/xc32/v1.34/bin/bin/../../lib/gcc/pic32mx/4.5.2/../../../../pic32mx/lib\libpic32.a(vector35.o)

.bss%z45        0x00000000        0x0
 .bss           0x00000000        0x0 c:/program files (x86)/microchip/xc32/v1.34/bin/bin/../../lib/gcc/pic32mx/4.5.2/../../../../pic32mx/lib\libpic32.a(vector34.o)

.data%z46       0x00000000        0x0
 .data          0x00000000        0x0 c:/program files (x86)/microchip/xc32/v1.34/bin/bin/../../lib/gcc/pic32mx/4.5.2/../../../../pic32mx/lib\libpic32.a(vector34.o)

.bss%z47        0x00000000        0x0
 .bss           0x00000000        0x0 c:/program files (x86)/microchip/xc32/v1.34/bin/bin/../../lib/gcc/pic32mx/4.5.2/../../../../pic32mx/lib\libpic32.a(vector33.o)

.data%z48       0x00000000        0x0
 .data          0x00000000        0x0 c:/program files (x86)/microchip/xc32/v1.34/bin/bin/../../lib/gcc/pic32mx/4.5.2/../../../../pic32mx/lib\libpic32.a(vector33.o)

.bss%z49        0x00000000        0x0
 .bss           0x00000000        0x0 c:/program files (x86)/microchip/xc32/v1.34/bin/bin/../../lib/gcc/pic32mx/4.5.2/../../../../pic32mx/lib\libpic32.a(vector32.o)

.data%z50       0x00000000        0x0
 .data          0x00000000        0x0 c:/program files (x86)/microchip/xc32/v1.34/bin/bin/../../lib/gcc/pic32mx/4.5.2/../../../../pic32mx/lib\libpic32.a(vector32.o)

.bss%z51        0x00000000        0x0
 .bss           0x00000000        0x0 c:/program files (x86)/microchip/xc32/v1.34/bin/bin/../../lib/gcc/pic32mx/4.5.2/../../../../pic32mx/lib\libpic32.a(vector31.o)

.data%z52       0x00000000        0x0
 .data          0x00000000        0x0 c:/program files (x86)/microchip/xc32/v1.34/bin/bin/../../lib/gcc/pic32mx/4.5.2/../../../../pic32mx/lib\libpic32.a(vector31.o)

.bss%z53        0x00000000        0x0
 .bss           0x00000000        0x0 c:/program files (x86)/microchip/xc32/v1.34/bin/bin/../../lib/gcc/pic32mx/4.5.2/../../../../pic32mx/lib\libpic32.a(vector30.o)

.data%z54       0x00000000        0x0
 .data          0x00000000        0x0 c:/program files (x86)/microchip/xc32/v1.34/bin/bin/../../lib/gcc/pic32mx/4.5.2/../../../../pic32mx/lib\libpic32.a(vector30.o)

.bss%z55        0x00000000        0x0
 .bss           0x00000000        0x0 c:/program files (x86)/microchip/xc32/v1.34/bin/bin/../../lib/gcc/pic32mx/4.5.2/../../../../pic32mx/lib\libpic32.a(vector29.o)

.data%z56       0x00000000        0x0
 .data          0x00000000        0x0 c:/program files (x86)/microchip/xc32/v1.34/bin/bin/../../lib/gcc/pic32mx/4.5.2/../../../../pic32mx/lib\libpic32.a(vector29.o)

.bss%z57        0x00000000        0x0
 .bss           0x00000000        0x0 c:/program files (x86)/microchip/xc32/v1.34/bin/bin/../../lib/gcc/pic32mx/4.5.2/../../../../pic32mx/lib\libpic32.a(vector28.o)

.data%z58       0x00000000        0x0
 .data          0x00000000        0x0 c:/program files (x86)/microchip/xc32/v1.34/bin/bin/../../lib/gcc/pic32mx/4.5.2/../../../../pic32mx/lib\libpic32.a(vector28.o)

.bss%z59        0x00000000        0x0
 .bss           0x00000000        0x0 c:/program files (x86)/microchip/xc32/v1.34/bin/bin/../../lib/gcc/pic32mx/4.5.2/../../../../pic32mx/lib\libpic32.a(vector27.o)

.data%z60       0x00000000        0x0
 .data          0x00000000        0x0 c:/program files (x86)/microchip/xc32/v1.34/bin/bin/../../lib/gcc/pic32mx/4.5.2/../../../../pic32mx/lib\libpic32.a(vector27.o)

.bss%z61        0x00000000        0x0
 .bss           0x00000000        0x0 c:/program files (x86)/microchip/xc32/v1.34/bin/bin/../../lib/gcc/pic32mx/4.5.2/../../../../pic32mx/lib\libpic32.a(vector26.o)

.data%z62       0x00000000        0x0
 .data          0x00000000        0x0 c:/program files (x86)/microchip/xc32/v1.34/bin/bin/../../lib/gcc/pic32mx/4.5.2/../../../../pic32mx/lib\libpic32.a(vector26.o)

.bss%z63        0x00000000        0x0
 .bss           0x00000000        0x0 c:/program files (x86)/microchip/xc32/v1.34/bin/bin/../../lib/gcc/pic32mx/4.5.2/../../../../pic32mx/lib\libpic32.a(vector25.o)

.data%z64       0x00000000        0x0
 .data          0x00000000        0x0 c:/program files (x86)/microchip/xc32/v1.34/bin/bin/../../lib/gcc/pic32mx/4.5.2/../../../../pic32mx/lib\libpic32.a(vector25.o)

.bss%z65        0x00000000        0x0
 .bss           0x00000000        0x0 c:/program files (x86)/microchip/xc32/v1.34/bin/bin/../../lib/gcc/pic32mx/4.5.2/../../../../pic32mx/lib\libpic32.a(vector24.o)

.data%z66       0x00000000        0x0
 .data          0x00000000        0x0 c:/program files (x86)/microchip/xc32/v1.34/bin/bin/../../lib/gcc/pic32mx/4.5.2/../../../../pic32mx/lib\libpic32.a(vector24.o)

.bss%z67        0x00000000        0x0
 .bss           0x00000000        0x0 c:/program files (x86)/microchip/xc32/v1.34/bin/bin/../../lib/gcc/pic32mx/4.5.2/../../../../pic32mx/lib\libpic32.a(vector23.o)

.data%z68       0x00000000        0x0
 .data          0x00000000        0x0 c:/program files (x86)/microchip/xc32/v1.34/bin/bin/../../lib/gcc/pic32mx/4.5.2/../../../../pic32mx/lib\libpic32.a(vector23.o)

.bss%z69        0x00000000        0x0
 .bss           0x00000000        0x0 c:/program files (x86)/microchip/xc32/v1.34/bin/bin/../../lib/gcc/pic32mx/4.5.2/../../../../pic32mx/lib\libpic32.a(vector22.o)

.data%z70       0x00000000        0x0
 .data          0x00000000        0x0 c:/program files (x86)/microchip/xc32/v1.34/bin/bin/../../lib/gcc/pic32mx/4.5.2/../../../../pic32mx/lib\libpic32.a(vector22.o)

.bss%z71        0x00000000        0x0
 .bss           0x00000000        0x0 c:/program files (x86)/microchip/xc32/v1.34/bin/bin/../../lib/gcc/pic32mx/4.5.2/../../../../pic32mx/lib\libpic32.a(vector21.o)

.data%z72       0x00000000        0x0
 .data          0x00000000        0x0 c:/program files (x86)/microchip/xc32/v1.34/bin/bin/../../lib/gcc/pic32mx/4.5.2/../../../../pic32mx/lib\libpic32.a(vector21.o)

.bss%z73        0x00000000        0x0
 .bss           0x00000000        0x0 c:/program files (x86)/microchip/xc32/v1.34/bin/bin/../../lib/gcc/pic32mx/4.5.2/../../../../pic32mx/lib\libpic32.a(vector20.o)

.data%z74       0x00000000        0x0
 .data          0x00000000        0x0 c:/program files (x86)/microchip/xc32/v1.34/bin/bin/../../lib/gcc/pic32mx/4.5.2/../../../../pic32mx/lib\libpic32.a(vector20.o)

.bss%z75        0x00000000        0x0
 .bss           0x00000000        0x0 c:/program files (x86)/microchip/xc32/v1.34/bin/bin/../../lib/gcc/pic32mx/4.5.2/../../../../pic32mx/lib\libpic32.a(vector19.o)

.data%z76       0x00000000        0x0
 .data          0x00000000        0x0 c:/program files (x86)/microchip/xc32/v1.34/bin/bin/../../lib/gcc/pic32mx/4.5.2/../../../../pic32mx/lib\libpic32.a(vector19.o)

.bss%z77        0x00000000        0x0
 .bss           0x00000000        0x0 c:/program files (x86)/microchip/xc32/v1.34/bin/bin/../../lib/gcc/pic32mx/4.5.2/../../../../pic32mx/lib\libpic32.a(vector18.o)

.data%z78       0x00000000        0x0
 .data          0x00000000        0x0 c:/program files (x86)/microchip/xc32/v1.34/bin/bin/../../lib/gcc/pic32mx/4.5.2/../../../../pic32mx/lib\libpic32.a(vector18.o)

.bss%z79        0x00000000        0x0
 .bss           0x00000000        0x0 c:/program files (x86)/microchip/xc32/v1.34/bin/bin/../../lib/gcc/pic32mx/4.5.2/../../../../pic32mx/lib\libpic32.a(vector17.o)

.data%z80       0x00000000        0x0
 .data          0x00000000        0x0 c:/program files (x86)/microchip/xc32/v1.34/bin/bin/../../lib/gcc/pic32mx/4.5.2/../../../../pic32mx/lib\libpic32.a(vector17.o)

.bss%z81        0x00000000        0x0
 .bss           0x00000000        0x0 c:/program files (x86)/microchip/xc32/v1.34/bin/bin/../../lib/gcc/pic32mx/4.5.2/../../../../pic32mx/lib\libpic32.a(vector16.o)

.data%z82       0x00000000        0x0
 .data          0x00000000        0x0 c:/program files (x86)/microchip/xc32/v1.34/bin/bin/../../lib/gcc/pic32mx/4.5.2/../../../../pic32mx/lib\libpic32.a(vector16.o)

.bss%z83        0x00000000        0x0
 .bss           0x00000000        0x0 c:/program files (x86)/microchip/xc32/v1.34/bin/bin/../../lib/gcc/pic32mx/4.5.2/../../../../pic32mx/lib\libpic32.a(vector15.o)

.data%z84       0x00000000        0x0
 .data          0x00000000        0x0 c:/program files (x86)/microchip/xc32/v1.34/bin/bin/../../lib/gcc/pic32mx/4.5.2/../../../../pic32mx/lib\libpic32.a(vector15.o)

.bss%z85        0x00000000        0x0
 .bss           0x00000000        0x0 c:/program files (x86)/microchip/xc32/v1.34/bin/bin/../../lib/gcc/pic32mx/4.5.2/../../../../pic32mx/lib\libpic32.a(vector14.o)

.data%z86       0x00000000        0x0
 .data          0x00000000        0x0 c:/program files (x86)/microchip/xc32/v1.34/bin/bin/../../lib/gcc/pic32mx/4.5.2/../../../../pic32mx/lib\libpic32.a(vector14.o)

.bss%z87        0x00000000        0x0
 .bss           0x00000000        0x0 c:/program files (x86)/microchip/xc32/v1.34/bin/bin/../../lib/gcc/pic32mx/4.5.2/../../../../pic32mx/lib\libpic32.a(vector13.o)

.data%z88       0x00000000        0x0
 .data          0x00000000        0x0 c:/program files (x86)/microchip/xc32/v1.34/bin/bin/../../lib/gcc/pic32mx/4.5.2/../../../../pic32mx/lib\libpic32.a(vector13.o)

.bss%z89        0x00000000        0x0
 .bss           0x00000000        0x0 c:/program files (x86)/microchip/xc32/v1.34/bin/bin/../../lib/gcc/pic32mx/4.5.2/../../../../pic32mx/lib\libpic32.a(vector12.o)

.data%z90       0x00000000        0x0
 .data          0x00000000        0x0 c:/program files (x86)/microchip/xc32/v1.34/bin/bin/../../lib/gcc/pic32mx/4.5.2/../../../../pic32mx/lib\libpic32.a(vector12.o)

.bss%z91        0x00000000        0x0
 .bss           0x00000000        0x0 c:/program files (x86)/microchip/xc32/v1.34/bin/bin/../../lib/gcc/pic32mx/4.5.2/../../../../pic32mx/lib\libpic32.a(vector11.o)

.data%z92       0x00000000        0x0
 .data          0x00000000        0x0 c:/program files (x86)/microchip/xc32/v1.34/bin/bin/../../lib/gcc/pic32mx/4.5.2/../../../../pic32mx/lib\libpic32.a(vector11.o)

.bss%z93        0x00000000        0x0
 .bss           0x00000000        0x0 c:/program files (x86)/microchip/xc32/v1.34/bin/bin/../../lib/gcc/pic32mx/4.5.2/../../../../pic32mx/lib\libpic32.a(vector10.o)

.data%z94       0x00000000        0x0
 .data          0x00000000        0x0 c:/program files (x86)/microchip/xc32/v1.34/bin/bin/../../lib/gcc/pic32mx/4.5.2/../../../../pic32mx/lib\libpic32.a(vector10.o)

.bss%z95        0x00000000        0x0
 .bss           0x00000000        0x0 c:/program files (x86)/microchip/xc32/v1.34/bin/bin/../../lib/gcc/pic32mx/4.5.2/../../../../pic32mx/lib\libpic32.a(vector9.o)

.data%z96       0x00000000        0x0
 .data          0x00000000        0x0 c:/program files (x86)/microchip/xc32/v1.34/bin/bin/../../lib/gcc/pic32mx/4.5.2/../../../../pic32mx/lib\libpic32.a(vector9.o)

.bss%z97        0x00000000        0x0
 .bss           0x00000000        0x0 c:/program files (x86)/microchip/xc32/v1.34/bin/bin/../../lib/gcc/pic32mx/4.5.2/../../../../pic32mx/lib\libpic32.a(vector8.o)

.data%z98       0x00000000        0x0
 .data          0x00000000        0x0 c:/program files (x86)/microchip/xc32/v1.34/bin/bin/../../lib/gcc/pic32mx/4.5.2/../../../../pic32mx/lib\libpic32.a(vector8.o)

.bss%z99        0x00000000        0x0
 .bss           0x00000000        0x0 c:/program files (x86)/microchip/xc32/v1.34/bin/bin/../../lib/gcc/pic32mx/4.5.2/../../../../pic32mx/lib\libpic32.a(vector7.o)

.data%z100      0x00000000        0x0
 .data          0x00000000        0x0 c:/program files (x86)/microchip/xc32/v1.34/bin/bin/../../lib/gcc/pic32mx/4.5.2/../../../../pic32mx/lib\libpic32.a(vector7.o)

.bss%z101       0x00000000        0x0
 .bss           0x00000000        0x0 c:/program files (x86)/microchip/xc32/v1.34/bin/bin/../../lib/gcc/pic32mx/4.5.2/../../../../pic32mx/lib\libpic32.a(vector6.o)

.data%z102      0x00000000        0x0
 .data          0x00000000        0x0 c:/program files (x86)/microchip/xc32/v1.34/bin/bin/../../lib/gcc/pic32mx/4.5.2/../../../../pic32mx/lib\libpic32.a(vector6.o)

.bss%z103       0x00000000        0x0
 .bss           0x00000000        0x0 c:/program files (x86)/microchip/xc32/v1.34/bin/bin/../../lib/gcc/pic32mx/4.5.2/../../../../pic32mx/lib\libpic32.a(vector5.o)

.data%z104      0x00000000        0x0
 .data          0x00000000        0x0 c:/program files (x86)/microchip/xc32/v1.34/bin/bin/../../lib/gcc/pic32mx/4.5.2/../../../../pic32mx/lib\libpic32.a(vector5.o)

.bss%z105       0x00000000        0x0
 .bss           0x00000000        0x0 c:/program files (x86)/microchip/xc32/v1.34/bin/bin/../../lib/gcc/pic32mx/4.5.2/../../../../pic32mx/lib\libpic32.a(vector3.o)

.data%z106      0x00000000        0x0
 .data          0x00000000        0x0 c:/program files (x86)/microchip/xc32/v1.34/bin/bin/../../lib/gcc/pic32mx/4.5.2/../../../../pic32mx/lib\libpic32.a(vector3.o)

.bss%z107       0x00000000        0x0
 .bss           0x00000000        0x0 c:/program files (x86)/microchip/xc32/v1.34/bin/bin/../../lib/gcc/pic32mx/4.5.2/../../../../pic32mx/lib\libpic32.a(vector2.o)

.data%z108      0x00000000        0x0
 .data          0x00000000        0x0 c:/program files (x86)/microchip/xc32/v1.34/bin/bin/../../lib/gcc/pic32mx/4.5.2/../../../../pic32mx/lib\libpic32.a(vector2.o)

.bss%z109       0x00000000        0x0
 .bss           0x00000000        0x0 c:/program files (x86)/microchip/xc32/v1.34/bin/bin/../../lib/gcc/pic32mx/4.5.2/../../../../pic32mx/lib\libpic32.a(vector1.o)

.data%z110      0x00000000        0x0
 .data          0x00000000        0x0 c:/program files (x86)/microchip/xc32/v1.34/bin/bin/../../lib/gcc/pic32mx/4.5.2/../../../../pic32mx/lib\libpic32.a(vector1.o)

.bss%z111       0x00000000        0x0
 .bss           0x00000000        0x0 c:/program files (x86)/microchip/xc32/v1.34/bin/bin/../../lib/gcc/pic32mx/4.5.2/../../../../pic32mx/lib\libpic32.a(vector0.o)

.data%z112      0x00000000        0x0
 .data          0x00000000        0x0 c:/program files (x86)/microchip/xc32/v1.34/bin/bin/../../lib/gcc/pic32mx/4.5.2/../../../../pic32mx/lib\libpic32.a(vector0.o)

.bss%z113       0x00000000        0x0
 .bss           0x00000000        0x0 c:/program files (x86)/microchip/xc32/v1.34/bin/bin/../../lib/gcc/pic32mx/4.5.2/../../../../pic32mx/lib\libpic32.a(general-exception.o)

.data%z114      0x00000000        0x0
 .data          0x00000000        0x0 c:/program files (x86)/microchip/xc32/v1.34/bin/bin/../../lib/gcc/pic32mx/4.5.2/../../../../pic32mx/lib\libpic32.a(general-exception.o)

.bss%z115       0x00000000        0x0
 .bss           0x00000000        0x0 c:/program files (x86)/microchip/xc32/v1.34/bin/bin/../../lib/gcc/pic32mx/4.5.2/../../../../pic32mx/lib\libpic32.a(default-nmi-handler.o)

.data%z116      0x00000000        0x0
 .data          0x00000000        0x0 c:/program files (x86)/microchip/xc32/v1.34/bin/bin/../../lib/gcc/pic32mx/4.5.2/../../../../pic32mx/lib\libpic32.a(default-nmi-handler.o)

.bss%z117       0x00000000        0x0
 .bss           0x00000000        0x0 c:/program files (x86)/microchip/xc32/v1.34/bin/bin/../../lib/gcc/pic32mx/4.5.2/../../../../pic32mx/lib\libpic32.a(default-on-bootstrap.o)

.data%z118      0x00000000        0x0
 .data          0x00000000        0x0 c:/program files (x86)/microchip/xc32/v1.34/bin/bin/../../lib/gcc/pic32mx/4.5.2/../../../../pic32mx/lib\libpic32.a(default-on-bootstrap.o)

.bss%z119       0x00000000        0x0
 .bss           0x00000000        0x0 c:/program files (x86)/microchip/xc32/v1.34/bin/bin/../../lib/gcc/pic32mx/4.5.2/../../../../pic32mx/lib\libpic32.a(default-on-reset.o)

.data%z120      0x00000000        0x0
 .data          0x00000000        0x0 c:/program files (x86)/microchip/xc32/v1.34/bin/bin/../../lib/gcc/pic32mx/4.5.2/../../../../pic32mx/lib\libpic32.a(default-on-reset.o)

.bss%z121       0x00000000        0x0
 .bss           0x00000000        0x0 c:/program files (x86)/microchip/xc32/v1.34/bin/bin/../../lib/gcc/pic32mx/4.5.2/../../../../pic32mx/lib\libpic32.a(default-bootstrap-exception-handler.o)

.data%z122      0x00000000        0x0
 .data          0x00000000        0x0 c:/program files (x86)/microchip/xc32/v1.34/bin/bin/../../lib/gcc/pic32mx/4.5.2/../../../../pic32mx/lib\libpic32.a(default-bootstrap-exception-handler.o)

.bss%z123       0x00000000        0x0
 .bss           0x00000000        0x0 c:/program files (x86)/microchip/xc32/v1.34/bin/bin/../../lib/gcc/pic32mx/4.5.2/../../../../pic32mx/lib\libpic32.a(strlen.o)

.data%z124      0x00000000        0x0
 .data          0x00000000        0x0 c:/program files (x86)/microchip/xc32/v1.34/bin/bin/../../lib/gcc/pic32mx/4.5.2/../../../../pic32mx/lib\libpic32.a(strlen.o)

.bss%z125       0x00000000        0x0
 .bss           0x00000000        0x0 c:/program files (x86)/microchip/xc32/v1.34/bin/bin/../../lib/gcc/pic32mx/4.5.2/../../../../pic32mx/lib\libpic32.a(memset.o)

.data%z126      0x00000000        0x0
 .data          0x00000000        0x0 c:/program files (x86)/microchip/xc32/v1.34/bin/bin/../../lib/gcc/pic32mx/4.5.2/../../../../pic32mx/lib\libpic32.a(memset.o)

.bss%z127       0x00000000        0x0
 .bss           0x00000000        0x0 c:/program files (x86)/microchip/xc32/v1.34/bin/bin/../../lib/gcc/pic32mx/4.5.2/../../../../pic32mx/lib\libpic32.a(memcpy.o)

.data%z128      0x00000000        0x0
 .data          0x00000000        0x0 c:/program files (x86)/microchip/xc32/v1.34/bin/bin/../../lib/gcc/pic32mx/4.5.2/../../../../pic32mx/lib\libpic32.a(memcpy.o)

.bss%z129       0x00000000        0x0
 .bss           0x00000000        0x0 c:/program files (x86)/microchip/xc32/v1.34/bin/bin/../../lib/gcc/pic32mx/4.5.2/../../../../pic32mx/lib\libpic32.a(memcmp.o)

.data%z130      0x00000000        0x0
 .data          0x00000000        0x0 c:/program files (x86)/microchip/xc32/v1.34/bin/bin/../../lib/gcc/pic32mx/4.5.2/../../../../pic32mx/lib\libpic32.a(memcmp.o)

.bss%z131       0x00000000        0x0
 .bss           0x00000000        0x0 c:/program files (x86)/microchip/xc32/v1.34/bin/bin/../../lib/gcc/pic32mx/4.5.2\libgcc.a(_umoddi3.o)

.data%z132      0x00000000        0x0
 .data          0x00000000        0x0 c:/program files (x86)/microchip/xc32/v1.34/bin/bin/../../lib/gcc/pic32mx/4.5.2\libgcc.a(_umoddi3.o)

.bss%z133       0x00000000        0x0
 .bss           0x00000000        0x0 c:/program files (x86)/microchip/xc32/v1.34/bin/bin/../../lib/gcc/pic32mx/4.5.2\libgcc.a(_udivdi3.o)

.data%z134      0x00000000        0x0
 .data          0x00000000        0x0 c:/program files (x86)/microchip/xc32/v1.34/bin/bin/../../lib/gcc/pic32mx/4.5.2\libgcc.a(_udivdi3.o)

.bss%z135       0x00000000        0x0
 .bss           0x00000000        0x0 c:/program files (x86)/microchip/xc32/v1.34/bin/bin/../../lib/gcc/pic32mx/4.5.2/../../../../pic32mx/lib\libmchp_peripheral_32MX795F512L.a(int_enable_interrupts_lib.o)

.data%z136      0x00000000        0x0
 .data          0x00000000        0x0 c:/program files (x86)/microchip/xc32/v1.34/bin/bin/../../lib/gcc/pic32mx/4.5.2/../../../../pic32mx/lib\libmchp_peripheral_32MX795F512L.a(int_enable_interrupts_lib.o)

.bss%z137       0x00000000        0x0
 .bss           0x00000000        0x0 c:/program files (x86)/microchip/xc32/v1.34/bin/bin/../../lib/gcc/pic32mx/4.5.2/../../../../pic32mx/lib\libmchp_peripheral_32MX795F512L.a(_ports_tbl_libp.o)

.data%z138      0x00000000        0x0
 .data          0x00000000        0x0 c:/program files (x86)/microchip/xc32/v1.34/bin/bin/../../lib/gcc/pic32mx/4.5.2/../../../../pic32mx/lib\libmchp_peripheral_32MX795F512L.a(_ports_tbl_libp.o)

.bss%z139       0x00000000        0x0
 .bss           0x00000000        0x0 c:/program files (x86)/microchip/xc32/v1.34/bin/bin/../../lib/gcc/pic32mx/4.5.2/../../../../pic32mx/lib\libmchp_peripheral_32MX795F512L.a(port_set_pins_digital_out_lib.o)

.data%z140      0x00000000        0x0
 .data          0x00000000        0x0 c:/program files (x86)/microchip/xc32/v1.34/bin/bin/../../lib/gcc/pic32mx/4.5.2/../../../../pic32mx/lib\libmchp_peripheral_32MX795F512L.a(port_set_pins_digital_out_lib.o)

.bss%z141       0x00000000        0x0
 .bss           0x00000000        0x0 c:/program files (x86)/microchip/xc32/v1.34/bin/bin/../../lib/gcc/pic32mx/4.5.2/../../../../pic32mx/lib\libmchp_peripheral_32MX795F512L.a(port_set_pins_digital_in_lib.o)

.data%z142      0x00000000        0x0
 .data          0x00000000        0x0 c:/program files (x86)/microchip/xc32/v1.34/bin/bin/../../lib/gcc/pic32mx/4.5.2/../../../../pic32mx/lib\libmchp_peripheral_32MX795F512L.a(port_set_pins_digital_in_lib.o)

.bss%z143       0x00000000        0x0
 .bss           0x00000000        0x0 c:/program files (x86)/microchip/xc32/v1.34/bin/bin/../../lib/gcc/pic32mx/4.5.2/../../../../pic32mx/lib\libmchp_peripheral_32MX795F512L.a(int_tbl_lib.o)

.data%z144      0x00000000        0x0
 .data          0x00000000        0x0 c:/program files (x86)/microchip/xc32/v1.34/bin/bin/../../lib/gcc/pic32mx/4.5.2/../../../../pic32mx/lib\libmchp_peripheral_32MX795F512L.a(int_tbl_lib.o)

.bss%z145       0x00000000        0x0
 .bss           0x00000000        0x0 c:/program files (x86)/microchip/xc32/v1.34/bin/bin/../../lib/gcc/pic32mx/4.5.2/../../../../pic32mx/lib\libmchp_peripheral_32MX795F512L.a(int_enable_mv_int_lib.o)

.data%z146      0x00000000        0x0
 .data          0x00000000        0x0 c:/program files (x86)/microchip/xc32/v1.34/bin/bin/../../lib/gcc/pic32mx/4.5.2/../../../../pic32mx/lib\libmchp_peripheral_32MX795F512L.a(int_enable_mv_int_lib.o)

.bss%z147       0x00000000        0x0
 .bss           0x00000000        0x0 c:/program files (x86)/microchip/xc32/v1.34/bin/bin/../../lib/gcc/pic32mx/4.5.2/../../../../pic32mx/lib\libmchp_peripheral_32MX795F512L.a(int_restore_interrupts_lib.o)

.data%z148      0x00000000        0x0
 .data          0x00000000        0x0 c:/program files (x86)/microchip/xc32/v1.34/bin/bin/../../lib/gcc/pic32mx/4.5.2/../../../../pic32mx/lib\libmchp_peripheral_32MX795F512L.a(int_restore_interrupts_lib.o)

.bss%z149       0x00000000        0x0
 .bss           0x00000000        0x0 c:/program files (x86)/microchip/xc32/v1.34/bin/bin/../../lib/gcc/pic32mx/4.5.2/../../../../pic32mx/lib\libmchp_peripheral_32MX795F512L.a(int_disable_interrupts_lib.o)

.data%z150      0x00000000        0x0
 .data          0x00000000        0x0 c:/program files (x86)/microchip/xc32/v1.34/bin/bin/../../lib/gcc/pic32mx/4.5.2/../../../../pic32mx/lib\libmchp_peripheral_32MX795F512L.a(int_disable_interrupts_lib.o)

.bss%z151       0x00000000        0x0
 .bss           0x00000000        0x0 c:/program files (x86)/microchip/xc32/v1.34/bin/bin/../../lib/gcc/pic32mx/4.5.2/../../../../pic32mx/lib\libmchp_peripheral_32MX795F512L.a(pcache.o)

.data%z152      0x00000000        0x0
 .data          0x00000000        0x0 c:/program files (x86)/microchip/xc32/v1.34/bin/bin/../../lib/gcc/pic32mx/4.5.2/../../../../pic32mx/lib\libmchp_peripheral_32MX795F512L.a(pcache.o)

.bss%z153       0x00000000        0x0
 .bss           0x00000000        0x0 c:/program files (x86)/microchip/xc32/v1.34/bin/bin/../../lib/gcc/pic32mx/4.5.2/../../../../pic32mx/lib\libmchp_peripheral_32MX795F512L.a(eth_miim_access.o)

.data%z154      0x00000000        0x0
 .data          0x00000000        0x0 c:/program files (x86)/microchip/xc32/v1.34/bin/bin/../../lib/gcc/pic32mx/4.5.2/../../../../pic32mx/lib\libmchp_peripheral_32MX795F512L.a(eth_miim_access.o)

.bss%z155       0x00000000        0x0
 .bss           0x00000000        0x0 c:/program files (x86)/microchip/xc32/v1.34/bin/bin/../../lib/gcc/pic32mx/4.5.2/../../../../pic32mx/lib\libmchp_peripheral_32MX795F512L.a(_eth_append_busy_list_lib.o)

.data%z156      0x00000000        0x0
 .data          0x00000000        0x0 c:/program files (x86)/microchip/xc32/v1.34/bin/bin/../../lib/gcc/pic32mx/4.5.2/../../../../pic32mx/lib\libmchp_peripheral_32MX795F512L.a(_eth_append_busy_list_lib.o)

.bss%z157       0x00000000        0x0
 .bss           0x00000000        0x0 c:/program files (x86)/microchip/xc32/v1.34/bin/bin/../../lib/gcc/pic32mx/4.5.2/../../../../pic32mx/lib\libmchp_peripheral_32MX795F512L.a(eth_tx_packet_lib.o)

.data%z158      0x00000000        0x0
 .data          0x00000000        0x0 c:/program files (x86)/microchip/xc32/v1.34/bin/bin/../../lib/gcc/pic32mx/4.5.2/../../../../pic32mx/lib\libmchp_peripheral_32MX795F512L.a(eth_tx_packet_lib.o)

.bss%z159       0x00000000        0x0
 .bss           0x00000000        0x0 c:/program files (x86)/microchip/xc32/v1.34/bin/bin/../../lib/gcc/pic32mx/4.5.2/../../../../pic32mx/lib\libmchp_peripheral_32MX795F512L.a(eth_rx_set_buffer_size_lib.o)

.data%z160      0x00000000        0x0
 .data          0x00000000        0x0 c:/program files (x86)/microchip/xc32/v1.34/bin/bin/../../lib/gcc/pic32mx/4.5.2/../../../../pic32mx/lib\libmchp_peripheral_32MX795F512L.a(eth_rx_set_buffer_size_lib.o)

.bss%z161       0x00000000        0x0
 .bss           0x00000000        0x0 c:/program files (x86)/microchip/xc32/v1.34/bin/bin/../../lib/gcc/pic32mx/4.5.2/../../../../pic32mx/lib\libmchp_peripheral_32MX795F512L.a(eth_rx_get_packet_lib.o)

.data%z162      0x00000000        0x0
 .data          0x00000000        0x0 c:/program files (x86)/microchip/xc32/v1.34/bin/bin/../../lib/gcc/pic32mx/4.5.2/../../../../pic32mx/lib\libmchp_peripheral_32MX795F512L.a(eth_rx_get_packet_lib.o)

.bss%z163       0x00000000        0x0
 .bss           0x00000000        0x0 c:/program files (x86)/microchip/xc32/v1.34/bin/bin/../../lib/gcc/pic32mx/4.5.2/../../../../pic32mx/lib\libmchp_peripheral_32MX795F512L.a(eth_rx_filters_lib.o)

.data%z164      0x00000000        0x0
 .data          0x00000000        0x0 c:/program files (x86)/microchip/xc32/v1.34/bin/bin/../../lib/gcc/pic32mx/4.5.2/../../../../pic32mx/lib\libmchp_peripheral_32MX795F512L.a(eth_rx_filters_lib.o)

.bss%z165       0x00000000        0x0
 .bss           0x00000000        0x0 c:/program files (x86)/microchip/xc32/v1.34/bin/bin/../../lib/gcc/pic32mx/4.5.2/../../../../pic32mx/lib\libmchp_peripheral_32MX795F512L.a(eth_rx_buffers_append_lib.o)

.data%z166      0x00000000        0x0
 .data          0x00000000        0x0 c:/program files (x86)/microchip/xc32/v1.34/bin/bin/../../lib/gcc/pic32mx/4.5.2/../../../../pic32mx/lib\libmchp_peripheral_32MX795F512L.a(eth_rx_buffers_append_lib.o)

.bss%z167       0x00000000        0x0
 .bss           0x00000000        0x0 c:/program files (x86)/microchip/xc32/v1.34/bin/bin/../../lib/gcc/pic32mx/4.5.2/../../../../pic32mx/lib\libmchp_peripheral_32MX795F512L.a(eth_mac_set_address_max_lib.o)

.data%z168      0x00000000        0x0
 .data          0x00000000        0x0 c:/program files (x86)/microchip/xc32/v1.34/bin/bin/../../lib/gcc/pic32mx/4.5.2/../../../../pic32mx/lib\libmchp_peripheral_32MX795F512L.a(eth_mac_set_address_max_lib.o)

.bss%z169       0x00000000        0x0
 .bss           0x00000000        0x0 c:/program files (x86)/microchip/xc32/v1.34/bin/bin/../../lib/gcc/pic32mx/4.5.2/../../../../pic32mx/lib\libmchp_peripheral_32MX795F512L.a(eth_mac_open_lib.o)

.data%z170      0x00000000        0x0
 .data          0x00000000        0x0 c:/program files (x86)/microchip/xc32/v1.34/bin/bin/../../lib/gcc/pic32mx/4.5.2/../../../../pic32mx/lib\libmchp_peripheral_32MX795F512L.a(eth_mac_open_lib.o)

.bss%z171       0x00000000        0x0
 .bss           0x00000000        0x0 c:/program files (x86)/microchip/xc32/v1.34/bin/bin/../../lib/gcc/pic32mx/4.5.2/../../../../pic32mx/lib\libmchp_peripheral_32MX795F512L.a(eth_init_lib.o)

.data%z172      0x00000000        0x0
 .data          0x00000000        0x0 c:/program files (x86)/microchip/xc32/v1.34/bin/bin/../../lib/gcc/pic32mx/4.5.2/../../../../pic32mx/lib\libmchp_peripheral_32MX795F512L.a(eth_init_lib.o)

.bss%z173       0x00000000        0x0
 .bss           0x00000000        0x0 c:/program files (x86)/microchip/xc32/v1.34/bin/bin/../../lib/gcc/pic32mx/4.5.2/../../../../pic32mx/lib\libmchp_peripheral_32MX795F512L.a(eth_descriptors_add_lib.o)

.data%z174      0x00000000        0x0
 .data          0x00000000        0x0 c:/program files (x86)/microchip/xc32/v1.34/bin/bin/../../lib/gcc/pic32mx/4.5.2/../../../../pic32mx/lib\libmchp_peripheral_32MX795F512L.a(eth_descriptors_add_lib.o)

.bss%z175       0x00000000        0x0
 .bss           0x00000000        0x0 c:/program files (x86)/microchip/xc32/v1.34/bin/bin/../../lib/gcc/pic32mx/4.5.2/../../../../pic32mx/lib\libmchp_peripheral_32MX795F512L.a(eth_ack_packet_lib.o)

.data%z176      0x00000000        0x0
 .data          0x00000000        0x0 c:/program files (x86)/microchip/xc32/v1.34/bin/bin/../../lib/gcc/pic32mx/4.5.2/../../../../pic32mx/lib\libmchp_peripheral_32MX795F512L.a(eth_ack_packet_lib.o)

.bss%z177       0x00000000        0x0
 .bss           0x00000000        0x0 c:/program files (x86)/microchip/xc32/v1.34/bin/bin/../../lib/gcc/pic32mx/4.5.2/../../../../pic32mx/lib\libmchp_peripheral.a(read_core_timer_lib.o)

.data%z178      0x00000000        0x0
 .data          0x00000000        0x0 c:/program files (x86)/microchip/xc32/v1.34/bin/bin/../../lib/gcc/pic32mx/4.5.2/../../../../pic32mx/lib\libmchp_peripheral.a(read_core_timer_lib.o)

.bss%z179       0x00000000        0x0
 .bss           0x00000000        0x0 c:/program files (x86)/microchip/xc32/v1.34/bin/bin/../../lib/gcc/pic32mx/4.5.2/../../../../pic32mx/lib/./proc/32MX795F512L\processor.o

.data%z180      0x00000000        0x0
 .data          0x00000000        0x0 c:/program files (x86)/microchip/xc32/v1.34/bin/bin/../../lib/gcc/pic32mx/4.5.2/../../../../pic32mx/lib/./proc/32MX795F512L\processor.o

.bss%z181       0x00000000        0x0
 .bss           0x00000000        0x0 c:/program files (x86)/microchip/xc32/v1.34/bin/bin/../../lib/gcc/pic32mx/4.5.2/../../../../pic32mx/lib\pic32_software_reset.o

.data%z182      0x00000000        0x0
 .data          0x00000000        0x0 c:/program files (x86)/microchip/xc32/v1.34/bin/bin/../../lib/gcc/pic32mx/4.5.2/../../../../pic32mx/lib\pic32_software_reset.o

.bss%z183       0x00000000        0x0
 .bss           0x00000000        0x0 c:/program files (x86)/microchip/xc32/v1.34/bin/bin/../../lib/gcc/pic32mx/4.5.2/../../../../pic32mx/lib/./proc/32MX795F512L\default_isr_vectors.o

.data%z184      0x00000000        0x0
 .data          0x00000000        0x0 c:/program files (x86)/microchip/xc32/v1.34/bin/bin/../../lib/gcc/pic32mx/4.5.2/../../../../pic32mx/lib/./proc/32MX795F512L\default_isr_vectors.o

.bss%z185       0x00000000        0x0
 .bss           0x00000000        0x0 build/XC32-PIC32_ETH_SK_ETH795/production/_ext/1472/MainDemo.o

.data%z186      0x00000000        0x0
 .data          0x00000000        0x0 build/XC32-PIC32_ETH_SK_ETH795/production/_ext/1472/MainDemo.o

.bss%z187       0x00000000        0x0
 .bss           0x00000000        0x0 build/XC32-PIC32_ETH_SK_ETH795/production/_ext/1954962658/ZeroconfMulticastDNS.o

.data%z188      0x00000000        0x0
 .data          0x00000000        0x0 build/XC32-PIC32_ETH_SK_ETH795/production/_ext/1954962658/ZeroconfMulticastDNS.o

.bss%z189       0x00000000        0x0
 .bss           0x00000000        0x0 build/XC32-PIC32_ETH_SK_ETH795/production/_ext/1954962658/ZeroconfLinkLocal.o

.data%z190      0x00000000        0x0
 .data          0x00000000        0x0 build/XC32-PIC32_ETH_SK_ETH795/production/_ext/1954962658/ZeroconfLinkLocal.o

.bss%z191       0x00000000        0x0
 .bss           0x00000000        0x0 build/XC32-PIC32_ETH_SK_ETH795/production/_ext/1954962658/ZeroconfHelper.o

.data%z192      0x00000000        0x0
 .data          0x00000000        0x0 build/XC32-PIC32_ETH_SK_ETH795/production/_ext/1954962658/ZeroconfHelper.o

.bss%z193       0x00000000        0x0
 .bss           0x00000000        0x0 build/XC32-PIC32_ETH_SK_ETH795/production/_ext/1954962658/UDPPerformanceTest.o

.data%z194      0x00000000        0x0
 .data          0x00000000        0x0 build/XC32-PIC32_ETH_SK_ETH795/production/_ext/1954962658/UDPPerformanceTest.o

.bss%z195       0x00000000        0x0
 .bss           0x00000000        0x0 build/XC32-PIC32_ETH_SK_ETH795/production/_ext/1954962658/UDP.o

.data%z196      0x00000000        0x0
 .data          0x00000000        0x0 build/XC32-PIC32_ETH_SK_ETH795/production/_ext/1954962658/UDP.o

.bss%z197       0x00000000        0x0
 .bss           0x00000000        0x0 build/XC32-PIC32_ETH_SK_ETH795/production/_ext/1954962658/UART2TCPBridge.o

.data%z198      0x00000000        0x0
 .data          0x00000000        0x0 build/XC32-PIC32_ETH_SK_ETH795/production/_ext/1954962658/UART2TCPBridge.o

.bss%z199       0x00000000        0x0
 .bss           0x00000000        0x0 build/XC32-PIC32_ETH_SK_ETH795/production/_ext/1954962658/UART.o

.data%z200      0x00000000        0x0
 .data          0x00000000        0x0 build/XC32-PIC32_ETH_SK_ETH795/production/_ext/1954962658/UART.o

.bss%z201       0x00000000        0x0
 .bss           0x00000000        0x0 build/XC32-PIC32_ETH_SK_ETH795/production/_ext/1954962658/Tick.o

.data%z202      0x00000000        0x0
 .data          0x00000000        0x0 build/XC32-PIC32_ETH_SK_ETH795/production/_ext/1954962658/Tick.o

.bss%z203       0x00000000        0x0
 .bss           0x00000000        0x0 build/XC32-PIC32_ETH_SK_ETH795/production/_ext/1954962658/Telnet.o

.data%z204      0x00000000        0x0
 .data          0x00000000        0x0 build/XC32-PIC32_ETH_SK_ETH795/production/_ext/1954962658/Telnet.o

.bss%z205       0x00000000        0x0
 .bss           0x00000000        0x0 build/XC32-PIC32_ETH_SK_ETH795/production/_ext/1954962658/TFTPc.o

.data%z206      0x00000000        0x0
 .data          0x00000000        0x0 build/XC32-PIC32_ETH_SK_ETH795/production/_ext/1954962658/TFTPc.o

.bss%z207       0x00000000        0x0
 .bss           0x00000000        0x0 build/XC32-PIC32_ETH_SK_ETH795/production/_ext/1954962658/TCPPerformanceTest.o

.data%z208      0x00000000        0x0
 .data          0x00000000        0x0 build/XC32-PIC32_ETH_SK_ETH795/production/_ext/1954962658/TCPPerformanceTest.o

.bss%z209       0x00000000        0x0
 .bss           0x00000000        0x0 build/XC32-PIC32_ETH_SK_ETH795/production/_ext/1954962658/TCP.o

.data%z210      0x00000000        0x0
 .data          0x00000000        0x0 build/XC32-PIC32_ETH_SK_ETH795/production/_ext/1954962658/TCP.o

.bss%z211       0x00000000        0x0
 .bss           0x00000000        0x0 build/XC32-PIC32_ETH_SK_ETH795/production/_ext/1954962658/StackTsk.o

.data%z212      0x00000000        0x0
 .data          0x00000000        0x0 build/XC32-PIC32_ETH_SK_ETH795/production/_ext/1954962658/StackTsk.o

.bss%z213       0x00000000        0x0
 .bss           0x00000000        0x0 build/XC32-PIC32_ETH_SK_ETH795/production/_ext/1954962658/SSL.o

.data%z214      0x00000000        0x0
 .data          0x00000000        0x0 build/XC32-PIC32_ETH_SK_ETH795/production/_ext/1954962658/SSL.o

.bss%z215       0x00000000        0x0
 .bss           0x00000000        0x0 build/XC32-PIC32_ETH_SK_ETH795/production/_ext/1954962658/SPIRAM.o

.data%z216      0x00000000        0x0
 .data          0x00000000        0x0 build/XC32-PIC32_ETH_SK_ETH795/production/_ext/1954962658/SPIRAM.o

.bss%z217       0x00000000        0x0
 .bss           0x00000000        0x0 build/XC32-PIC32_ETH_SK_ETH795/production/_ext/1954962658/SPIFlash.o

.data%z218      0x00000000        0x0
 .data          0x00000000        0x0 build/XC32-PIC32_ETH_SK_ETH795/production/_ext/1954962658/SPIFlash.o

.bss%z219       0x00000000        0x0
 .bss           0x00000000        0x0 build/XC32-PIC32_ETH_SK_ETH795/production/_ext/1954962658/SPIEEPROM.o

.data%z220      0x00000000        0x0
 .data          0x00000000        0x0 build/XC32-PIC32_ETH_SK_ETH795/production/_ext/1954962658/SPIEEPROM.o

.bss%z221       0x00000000        0x0
 .bss           0x00000000        0x0 build/XC32-PIC32_ETH_SK_ETH795/production/_ext/1954962658/SNTP.o

.data%z222      0x00000000        0x0
 .data          0x00000000        0x0 build/XC32-PIC32_ETH_SK_ETH795/production/_ext/1954962658/SNTP.o

.bss%z223       0x00000000        0x0
 .bss           0x00000000        0x0 build/XC32-PIC32_ETH_SK_ETH795/production/_ext/1954962658/SNMPv3USM.o

.data%z224      0x00000000        0x0
 .data          0x00000000        0x0 build/XC32-PIC32_ETH_SK_ETH795/production/_ext/1954962658/SNMPv3USM.o

.bss%z225       0x00000000        0x0
 .bss           0x00000000        0x0 build/XC32-PIC32_ETH_SK_ETH795/production/_ext/1954962658/SNMPv3.o

.data%z226      0x00000000        0x0
 .data          0x00000000        0x0 build/XC32-PIC32_ETH_SK_ETH795/production/_ext/1954962658/SNMPv3.o

.bss%z227       0x00000000        0x0
 .bss           0x00000000        0x0 build/XC32-PIC32_ETH_SK_ETH795/production/_ext/1954962658/SNMP.o

.data%z228      0x00000000        0x0
 .data          0x00000000        0x0 build/XC32-PIC32_ETH_SK_ETH795/production/_ext/1954962658/SNMP.o

.bss%z229       0x00000000        0x0
 .bss           0x00000000        0x0 build/XC32-PIC32_ETH_SK_ETH795/production/_ext/1954962658/SMTP.o

.data%z230      0x00000000        0x0
 .data          0x00000000        0x0 build/XC32-PIC32_ETH_SK_ETH795/production/_ext/1954962658/SMTP.o

.bss%z231       0x00000000        0x0
 .bss           0x00000000        0x0 build/XC32-PIC32_ETH_SK_ETH795/production/_ext/1954962658/Reboot.o

.data%z232      0x00000000        0x0
 .data          0x00000000        0x0 build/XC32-PIC32_ETH_SK_ETH795/production/_ext/1954962658/Reboot.o

.bss%z233       0x00000000        0x0
 .bss           0x00000000        0x0 build/XC32-PIC32_ETH_SK_ETH795/production/_ext/1954962658/Random.o

.data%z234      0x00000000        0x0
 .data          0x00000000        0x0 build/XC32-PIC32_ETH_SK_ETH795/production/_ext/1954962658/Random.o

.bss%z235       0x00000000        0x0
 .bss           0x00000000        0x0 build/XC32-PIC32_ETH_SK_ETH795/production/_ext/1954962658/RSA.o

.data%z236      0x00000000        0x0
 .data          0x00000000        0x0 build/XC32-PIC32_ETH_SK_ETH795/production/_ext/1954962658/RSA.o

.bss%z237       0x00000000        0x0
 .bss           0x00000000        0x0 build/XC32-PIC32_ETH_SK_ETH795/production/_ext/1954962658/NBNS.o

.data%z238      0x00000000        0x0
 .data          0x00000000        0x0 build/XC32-PIC32_ETH_SK_ETH795/production/_ext/1954962658/NBNS.o

.bss%z239       0x00000000        0x0
 .bss           0x00000000        0x0 build/XC32-PIC32_ETH_SK_ETH795/production/_ext/1954962658/MPFS2.o

.data%z240      0x00000000        0x0
 .data          0x00000000        0x0 build/XC32-PIC32_ETH_SK_ETH795/production/_ext/1954962658/MPFS2.o

.bss%z241       0x00000000        0x0
 .bss           0x00000000        0x0 build/XC32-PIC32_ETH_SK_ETH795/production/_ext/1954962658/LCDBlocking.o

.data%z242      0x00000000        0x0
 .data          0x00000000        0x0 build/XC32-PIC32_ETH_SK_ETH795/production/_ext/1954962658/LCDBlocking.o

.bss%z243       0x00000000        0x0
 .bss           0x00000000        0x0 build/XC32-PIC32_ETH_SK_ETH795/production/_ext/1954962658/IP.o

.data%z244      0x00000000        0x0
 .data          0x00000000        0x0 build/XC32-PIC32_ETH_SK_ETH795/production/_ext/1954962658/IP.o

.bss%z245       0x00000000        0x0
 .bss           0x00000000        0x0 build/XC32-PIC32_ETH_SK_ETH795/production/_ext/1954962658/ICMP.o

.data%z246      0x00000000        0x0
 .data          0x00000000        0x0 build/XC32-PIC32_ETH_SK_ETH795/production/_ext/1954962658/ICMP.o

.bss%z247       0x00000000        0x0
 .bss           0x00000000        0x0 build/XC32-PIC32_ETH_SK_ETH795/production/_ext/1954962658/Helpers.o

.data%z248      0x00000000        0x0
 .data          0x00000000        0x0 build/XC32-PIC32_ETH_SK_ETH795/production/_ext/1954962658/Helpers.o

.bss%z249       0x00000000        0x0
 .bss           0x00000000        0x0 build/XC32-PIC32_ETH_SK_ETH795/production/_ext/1954962658/Hashes.o

.data%z250      0x00000000        0x0
 .data          0x00000000        0x0 build/XC32-PIC32_ETH_SK_ETH795/production/_ext/1954962658/Hashes.o

.bss%z251       0x00000000        0x0
 .bss           0x00000000        0x0 build/XC32-PIC32_ETH_SK_ETH795/production/_ext/1954962658/HTTP2.o

.data%z252      0x00000000        0x0
 .data          0x00000000        0x0 build/XC32-PIC32_ETH_SK_ETH795/production/_ext/1954962658/HTTP2.o

.bss%z253       0x00000000        0x0
 .bss           0x00000000        0x0 build/XC32-PIC32_ETH_SK_ETH795/production/_ext/1954962658/FileSystem.o

.data%z254      0x00000000        0x0
 .data          0x00000000        0x0 build/XC32-PIC32_ETH_SK_ETH795/production/_ext/1954962658/FileSystem.o

.bss%z255       0x00000000        0x0
 .bss           0x00000000        0x0 build/XC32-PIC32_ETH_SK_ETH795/production/_ext/1954962658/FTP.o

.data%z256      0x00000000        0x0
 .data          0x00000000        0x0 build/XC32-PIC32_ETH_SK_ETH795/production/_ext/1954962658/FTP.o

.data%z257      0x00000000        0x0
 .data          0x00000000        0x0 build/XC32-PIC32_ETH_SK_ETH795/production/_ext/1954962658/ETHPIC32IntMac.o

.bss%z258       0x00000000        0x0
 .bss           0x00000000        0x0 build/XC32-PIC32_ETH_SK_ETH795/production/_ext/1954962658/ETHPIC32ExtPhyDP83848.o

.data%z259      0x00000000        0x0
 .data          0x00000000        0x0 build/XC32-PIC32_ETH_SK_ETH795/production/_ext/1954962658/ETHPIC32ExtPhyDP83848.o

.bss%z260       0x00000000        0x0
 .bss           0x00000000        0x0 build/XC32-PIC32_ETH_SK_ETH795/production/_ext/1954962658/ETHPIC32ExtPhy.o

.data%z261      0x00000000        0x0
 .data          0x00000000        0x0 build/XC32-PIC32_ETH_SK_ETH795/production/_ext/1954962658/ETHPIC32ExtPhy.o

.bss%z262       0x00000000        0x0
 .bss           0x00000000        0x0 build/XC32-PIC32_ETH_SK_ETH795/production/_ext/1954962658/ENCX24J600.o

.data%z263      0x00000000        0x0
 .data          0x00000000        0x0 build/XC32-PIC32_ETH_SK_ETH795/production/_ext/1954962658/ENCX24J600.o

.bss%z264       0x00000000        0x0
 .bss           0x00000000        0x0 build/XC32-PIC32_ETH_SK_ETH795/production/_ext/1954962658/ENC28J60.o

.data%z265      0x00000000        0x0
 .data          0x00000000        0x0 build/XC32-PIC32_ETH_SK_ETH795/production/_ext/1954962658/ENC28J60.o

.bss%z266       0x00000000        0x0
 .bss           0x00000000        0x0 build/XC32-PIC32_ETH_SK_ETH795/production/_ext/1954962658/DynDNS.o

.data%z267      0x00000000        0x0
 .data          0x00000000        0x0 build/XC32-PIC32_ETH_SK_ETH795/production/_ext/1954962658/DynDNS.o

.bss%z268       0x00000000        0x0
 .bss           0x00000000        0x0 build/XC32-PIC32_ETH_SK_ETH795/production/_ext/1954962658/Delay.o

.data%z269      0x00000000        0x0
 .data          0x00000000        0x0 build/XC32-PIC32_ETH_SK_ETH795/production/_ext/1954962658/Delay.o

.bss%z270       0x00000000        0x0
 .bss           0x00000000        0x0 build/XC32-PIC32_ETH_SK_ETH795/production/_ext/1954962658/DNSs.o

.data%z271      0x00000000        0x0
 .data          0x00000000        0x0 build/XC32-PIC32_ETH_SK_ETH795/production/_ext/1954962658/DNSs.o

.bss%z272       0x00000000        0x0
 .bss           0x00000000        0x0 build/XC32-PIC32_ETH_SK_ETH795/production/_ext/1954962658/DNS.o

.data%z273      0x00000000        0x0
 .data          0x00000000        0x0 build/XC32-PIC32_ETH_SK_ETH795/production/_ext/1954962658/DNS.o

.bss%z274       0x00000000        0x0
 .bss           0x00000000        0x0 build/XC32-PIC32_ETH_SK_ETH795/production/_ext/1954962658/DHCPs.o

.data%z275      0x00000000        0x0
 .data          0x00000000        0x0 build/XC32-PIC32_ETH_SK_ETH795/production/_ext/1954962658/DHCPs.o

.data%z276      0x00000000        0x0
 .data          0x00000000        0x0 build/XC32-PIC32_ETH_SK_ETH795/production/_ext/1954962658/DHCP.o

.bss%z277       0x00000000        0x0
 .bss           0x00000000        0x0 build/XC32-PIC32_ETH_SK_ETH795/production/_ext/1954962658/BigInt_helper_PIC32.o

.data%z278      0x00000000        0x0
 .data          0x00000000        0x0 build/XC32-PIC32_ETH_SK_ETH795/production/_ext/1954962658/BigInt_helper_PIC32.o

.bss%z279       0x00000000        0x0
 .bss           0x00000000        0x0 build/XC32-PIC32_ETH_SK_ETH795/production/_ext/1954962658/BigInt.o

.data%z280      0x00000000        0x0
 .data          0x00000000        0x0 build/XC32-PIC32_ETH_SK_ETH795/production/_ext/1954962658/BigInt.o

.bss%z281       0x00000000        0x0
 .bss           0x00000000        0x0 build/XC32-PIC32_ETH_SK_ETH795/production/_ext/1954962658/BerkeleyAPI.o

.data%z282      0x00000000        0x0
 .data          0x00000000        0x0 build/XC32-PIC32_ETH_SK_ETH795/production/_ext/1954962658/BerkeleyAPI.o

.bss%z283       0x00000000        0x0
 .bss           0x00000000        0x0 build/XC32-PIC32_ETH_SK_ETH795/production/_ext/1954962658/AutoIP.o

.data%z284      0x00000000        0x0
 .data          0x00000000        0x0 build/XC32-PIC32_ETH_SK_ETH795/production/_ext/1954962658/AutoIP.o

.bss%z285       0x00000000        0x0
 .bss           0x00000000        0x0 build/XC32-PIC32_ETH_SK_ETH795/production/_ext/1954962658/Announce.o

.data%z286      0x00000000        0x0
 .data          0x00000000        0x0 build/XC32-PIC32_ETH_SK_ETH795/production/_ext/1954962658/Announce.o

.data%z287      0x00000000        0x0
 .data          0x00000000        0x0 build/XC32-PIC32_ETH_SK_ETH795/production/_ext/1954962658/ARP.o

.bss%z288       0x00000000        0x0
 .bss           0x00000000        0x0 build/XC32-PIC32_ETH_SK_ETH795/production/_ext/1954962658/ARCFOUR.o

.data%z289      0x00000000        0x0
 .data          0x00000000        0x0 build/XC32-PIC32_ETH_SK_ETH795/production/_ext/1954962658/ARCFOUR.o

.bss%z290       0x00000000        0x0
 .bss           0x00000000        0x0 c:/program files (x86)/microchip/xc32/v1.34/bin/bin/../../lib/gcc/pic32mx/4.5.2/../../../../pic32mx/lib\debug-exception-return.o

.data%z291      0x00000000        0x0
 .data          0x00000000        0x0 c:/program files (x86)/microchip/xc32/v1.34/bin/bin/../../lib/gcc/pic32mx/4.5.2/../../../../pic32mx/lib\debug-exception-return.o

.bss%z292       0x00000000        0x0
 .bss           0x00000000        0x0 c:/program files (x86)/microchip/xc32/v1.34/bin/bin/../../lib/gcc/pic32mx/4.5.2/../../../../pic32mx/lib/./proc/32MX795F512L/crt0_mips32r2.o

.data%z293      0x00000000        0x0
 .data          0x00000000        0x0 c:/program files (x86)/microchip/xc32/v1.34/bin/bin/../../lib/gcc/pic32mx/4.5.2/../../../../pic32mx/lib/./proc/32MX795F512L/crt0_mips32r2.o

._debug_exception
                0xbfc00480       0x2c
 ._debug_exception
                0xbfc00480       0x2c c:/program files (x86)/microchip/xc32/v1.34/bin/bin/../../lib/gcc/pic32mx/4.5.2/../../../../pic32mx/lib\debug-exception-return.o
                0xbfc00480                __DbgExecReturn

.text           0x9d000000     0x5b6c
 .text          0x9d000000     0x17d8 build/XC32-PIC32_ETH_SK_ETH795/production/_ext/1954962658/DHCP.o
                0x9d000000                DHCPInit
                0x9d000104                DHCPDisable
                0x9d000174                DHCPEnable
                0x9d0001e4                DHCPIsEnabled
                0x9d00021c                DHCPIsBound
                0x9d000258                DHCPStateChanged
                0x9d0002bc                DHCPIsServerDetected
                0x9d0002f8                DHCPTempIPAddr
                0x9d000334                DHCPTask
 .text          0x9d0017d8     0x1304 build/XC32-PIC32_ETH_SK_ETH795/production/_ext/1954962658/ETHPIC32ExtPhy.o
                0x9d0017d8                EthPhyRestartNegotiation
                0x9d00186c                EthPhyGetHwConfigFlags
                0x9d0018dc                EthPhyInit
                0x9d001dbc                EthPhyNegotiationComplete
                0x9d00201c                EthPhyGetNegotiationResult
                0x9d002360                EthPhyGetLinkStatus
                0x9d002438                EthPhyReset
                0x9d002544                EthPhyScanLinkStart
                0x9d002580                EthPhyScanLinkRead
                0x9d0025ec                EthPhyScanLinkStop
 .text          0x9d002adc     0x10c8 build/XC32-PIC32_ETH_SK_ETH795/production/_ext/1954962658/UDP.o
                0x9d002adc                UDPInit
                0x9d002b4c                UDPOpenEx
                0x9d002d38                UDPTask
                0x9d003094                UDPIsOpened
                0x9d0030e4                UDPClose
                0x9d00318c                UDPSetTxBuffer
                0x9d0031ec                UDPSetRxBuffer
                0x9d00323c                UDPIsPutReady
                0x9d0032c8                UDPPut
                0x9d003354                UDPPutArray
                0x9d0033fc                UDPPutString
                0x9d003454                UDPFlush
                0x9d003638                UDPIsGetReady
                0x9d0036c8                UDPGet
                0x9d00374c                UDPGetArray
                0x9d00380c                UDPDiscard
                0x9d00386c                UDPProcess
 .text          0x9d003ba4     0x1054 build/XC32-PIC32_ETH_SK_ETH795/production/_ext/1954962658/Helpers.o
                0x9d003ba4                LFSRSeedRand
                0x9d003c28                LFSRRand
                0x9d003ca0                GenerateRandomDWORD
                0x9d003efc                StringToIPAddress
                0x9d004264                uitoa
                0x9d004390                hexatob
                0x9d004484                btohexa_high
                0x9d0044e8                btohexa_low
                0x9d00454c                stricmppgm2ram
                0x9d0046b8                swaps
                0x9d004704                swapl
                0x9d0047ec                CalcIPChecksum
                0x9d0048d4                strupr
                0x9d004970                FormatNetBIOSName
                0x9d004a38                strnchr
                0x9d004aec                strncpy_m
 .text          0x9d004bf8      0xf74 build/XC32-PIC32_ETH_SK_ETH795/production/_ext/1954962658/ETHPIC32IntMac.o
                0x9d004bf8                MACInit
                0x9d00500c                MACIsLinked
                0x9d005034                MACGetTxBaseAddr
                0x9d005074                MACGetHttpBaseAddr
                0x9d00509c                MACGetSslBaseAddr
                0x9d0050c4                MACSetWritePtr
                0x9d0050fc                MACIsTxReady
                0x9d0052c8                MACPut
                0x9d005304                MACPutArray
                0x9d005364                MACPutHeader
                0x9d005448                MACFlush
                0x9d0054b8                MACDiscardRx
                0x9d005518                MACGetHeader
                0x9d005744                MACSetReadPtrInRx
                0x9d005780                MACSetReadPtr
                0x9d0057b8                MACGet
                0x9d0057ec                MACGetArray
                0x9d00585c                MACGetFreeRxSize
                0x9d0058ac                MACMemCopyAsync
                0x9d005950                MACIsMemCopyDone
                0x9d005974                CalcIPBufferChecksum
                0x9d0059bc                MACCalcRxChecksum

.rodata         0x9d005b6c      0x7d4
 .rodata        0x9d005b6c      0x7d4 c:/program files (x86)/microchip/xc32/v1.34/bin/bin/../../lib/gcc/pic32mx/4.5.2/../../../../pic32mx/lib\libmchp_peripheral_32MX795F512L.a(int_tbl_lib.o)
                0x9d005b6c                __IntSrcTbl
                0x9d006088                __IntVectorTbl

.text           0x9d006340     0x2044
 .text          0x9d006340      0x6dc build/XC32-PIC32_ETH_SK_ETH795/production/_ext/1472/MainDemo.o
                0x9d006340                _general_exception_handler
                0x9d00636c                main
 .text          0x9d006a1c      0x648 build/XC32-PIC32_ETH_SK_ETH795/production/_ext/1954962658/ARP.o
                0x9d006a1c                ARPSendPkt
                0x9d006bc4                ARPInit
                0x9d006c50                ARPProcess
                0x9d006e14                ARPResolve
                0x9d006ef8                ARPIsResolved
                0x9d006fd8                SwapARPPacket
 .text          0x9d007064      0x45c c:/program files (x86)/microchip/xc32/v1.34/bin/bin/../../lib/gcc/pic32mx/4.5.2\libgcc.a(_udivdi3.o)
                0x9d007064                __udivdi3
 .text          0x9d0074c0      0x448 c:/program files (x86)/microchip/xc32/v1.34/bin/bin/../../lib/gcc/pic32mx/4.5.2\libgcc.a(_umoddi3.o)
                0x9d0074c0                __umoddi3
 .text          0x9d007908      0x3ac build/XC32-PIC32_ETH_SK_ETH795/production/_ext/1954962658/Tick.o
                0x9d007908                TickInit
                0x9d007a4c                TickGet
                0x9d007acc                TickGetDiv256
                0x9d007b4c                TickGetDiv64K
                0x9d007bcc                TickConvertToMilliseconds
                0x9d007c34                _T1Interrupt
 .text          0x9d007cb4      0x388 build/XC32-PIC32_ETH_SK_ETH795/production/_ext/1954962658/StackTsk.o
                0x9d007cb4                StackInit
                0x9d007d6c                StackTask
                0x9d00801c                StackApplications
 .text          0x9d00803c      0x348 build/XC32-PIC32_ETH_SK_ETH795/production/_ext/1954962658/IP.o
                0x9d00803c                IPGetHeader
                0x9d00817c                IPPutHeader
                0x9d0082a8                IPSetRxBuffer

.text.malloc    0x9d008384      0x278
 .text.malloc   0x9d008384      0x278 c:/program files (x86)/microchip/xc32/v1.34/bin/bin/../../lib/gcc/pic32mx/4.5.2/../../../../pic32mx/lib\libc.a(malloc.o)
                0x9d008384                malloc

.text.EthRxBuffersAppend
                0x9d0085fc      0x260
 .text.EthRxBuffersAppend
                0x9d0085fc      0x260 c:/program files (x86)/microchip/xc32/v1.34/bin/bin/../../lib/gcc/pic32mx/4.5.2/../../../../pic32mx/lib\libmchp_peripheral_32MX795F512L.a(eth_rx_buffers_append_lib.o)
                0x9d0085fc                EthRxBuffersAppend

.text._EthAckPacket
                0x9d00885c      0x1f0
 .text._EthAckPacket
                0x9d00885c      0x1f0 c:/program files (x86)/microchip/xc32/v1.34/bin/bin/../../lib/gcc/pic32mx/4.5.2/../../../../pic32mx/lib\libmchp_peripheral_32MX795F512L.a(eth_ack_packet_lib.o)
                0x9d00885c                _EthAckPacket

.text           0x9d008a4c      0x1c4
 .text          0x9d008a4c      0x1c4 build/XC32-PIC32_ETH_SK_ETH795/production/_ext/1954962658/ETHPIC32ExtPhyDP83848.o
                0x9d008a4c                EthPhyConfigureMII
                0x9d008af8                EthPhyConfigureMdix
                0x9d008bc4                EthPhyMIIMAddress
                0x9d008be8                EthPhyMIIMClock

.text.realloc   0x9d008c10      0x194
 .text.realloc  0x9d008c10      0x194 c:/program files (x86)/microchip/xc32/v1.34/bin/bin/../../lib/gcc/pic32mx/4.5.2/../../../../pic32mx/lib\libc.a(malloc.o)
                0x9d008c10                realloc

.text._sbrk_init
                0x9d008da4      0x190
 .text._sbrk_init
                0x9d008da4      0x190 c:/program files (x86)/microchip/xc32/v1.34/bin/bin/../../lib/gcc/pic32mx/4.5.2/../../../../pic32mx/lib\libpic32.a(sbrk.o)
                0x9d008da4                _sbrk_init

.text._EthRxAckBuffer
                0x9d008f34      0x188
 .text._EthRxAckBuffer
                0x9d008f34      0x188 c:/program files (x86)/microchip/xc32/v1.34/bin/bin/../../lib/gcc/pic32mx/4.5.2/../../../../pic32mx/lib\libmchp_peripheral_32MX795F512L.a(eth_ack_packet_lib.o)

.text           0x9d0090bc      0x178
 .text          0x9d0090bc      0x178 build/XC32-PIC32_ETH_SK_ETH795/production/_ext/1954962658/ICMP.o
                0x9d0090bc                ICMPProcess

.text.EthRxGetPacket
                0x9d009234      0x170
 .text.EthRxGetPacket
                0x9d009234      0x170 c:/program files (x86)/microchip/xc32/v1.34/bin/bin/../../lib/gcc/pic32mx/4.5.2/../../../../pic32mx/lib\libmchp_peripheral_32MX795F512L.a(eth_rx_get_packet_lib.o)
                0x9d009234                EthRxGetPacket

.dinit          0x9d0093a4      0x170
 .dinit         0x9d0093a4      0x170 data_init

.text           0x9d009514      0x2d0
 .text          0x9d009514      0x168 c:/program files (x86)/microchip/xc32/v1.34/bin/bin/../../lib/gcc/pic32mx/4.5.2/../../../../pic32mx/lib\libpic32.a(memcpy.o)
                0x9d009514                memcpy
 .text          0x9d00967c      0x168 c:/program files (x86)/microchip/xc32/v1.34/bin/bin/../../lib/gcc/pic32mx/4.5.2/../../../../pic32mx/lib\libpic32.a(strlen.o)
                0x9d00967c                strlen

.text.EthTxSendPacket
                0x9d0097e4      0x14c
 .text.EthTxSendPacket
                0x9d0097e4      0x14c c:/program files (x86)/microchip/xc32/v1.34/bin/bin/../../lib/gcc/pic32mx/4.5.2/../../../../pic32mx/lib\libmchp_peripheral_32MX795F512L.a(eth_tx_packet_lib.o)
                0x9d0097e4                EthTxSendPacket

.text._EthAppendBusyList
                0x9d009930      0x140
 .text._EthAppendBusyList
                0x9d009930      0x140 c:/program files (x86)/microchip/xc32/v1.34/bin/bin/../../lib/gcc/pic32mx/4.5.2/../../../../pic32mx/lib\libmchp_peripheral_32MX795F512L.a(_eth_append_busy_list_lib.o)
                0x9d009930                _EthAppendBusyList

.text.EthDescriptorsPoolAdd
                0x9d009a70      0x12c
 .text.EthDescriptorsPoolAdd
                0x9d009a70      0x12c c:/program files (x86)/microchip/xc32/v1.34/bin/bin/../../lib/gcc/pic32mx/4.5.2/../../../../pic32mx/lib\libmchp_peripheral_32MX795F512L.a(eth_descriptors_add_lib.o)
                0x9d009a70                EthDescriptorsPoolAdd

.text.EthDescriptorsAdd
                0x9d009b9c      0x124
 .text.EthDescriptorsAdd
                0x9d009b9c      0x124 c:/program files (x86)/microchip/xc32/v1.34/bin/bin/../../lib/gcc/pic32mx/4.5.2/../../../../pic32mx/lib\libmchp_peripheral_32MX795F512L.a(eth_descriptors_add_lib.o)
                0x9d009b9c                EthDescriptorsAdd

.text           0x9d009cc0       0xf0
 .text          0x9d009cc0       0xf0 build/XC32-PIC32_ETH_SK_ETH795/production/_ext/1954962658/Delay.o
                0x9d009cc0                DelayMs
                0x9d009d54                Delay10us

.text.general_exception
                0x9d009db0       0xdc
 .text.general_exception
                0x9d009db0       0xdc c:/program files (x86)/microchip/xc32/v1.34/bin/bin/../../lib/gcc/pic32mx/4.5.2/../../../../pic32mx/lib\libpic32.a(general-exception.o)
                0x9d009db0                _general_exception_context

.text._sbrk     0x9d009e8c       0xc4
 .text._sbrk    0x9d009e8c       0xc4 c:/program files (x86)/microchip/xc32/v1.34/bin/bin/../../lib/gcc/pic32mx/4.5.2/../../../../pic32mx/lib\libpic32.a(sbrk.o)
                0x9d009e8c                _sbrk

.text.EthTxSendBuffer
                0x9d009f50       0xc0
 .text.EthTxSendBuffer
                0x9d009f50       0xc0 c:/program files (x86)/microchip/xc32/v1.34/bin/bin/../../lib/gcc/pic32mx/4.5.2/../../../../pic32mx/lib\libmchp_peripheral_32MX795F512L.a(eth_tx_packet_lib.o)
                0x9d009f50                EthTxSendBuffer

.text.EthInit   0x9d00a010       0xb4
 .text.EthInit  0x9d00a010       0xb4 c:/program files (x86)/microchip/xc32/v1.34/bin/bin/../../lib/gcc/pic32mx/4.5.2/../../../../pic32mx/lib\libmchp_peripheral_32MX795F512L.a(eth_init_lib.o)
                0x9d00a010                EthInit

.text.EthMACOpen
                0x9d00a0c4       0xb4
 .text.EthMACOpen
                0x9d00a0c4       0xb4 c:/program files (x86)/microchip/xc32/v1.34/bin/bin/../../lib/gcc/pic32mx/4.5.2/../../../../pic32mx/lib\libmchp_peripheral_32MX795F512L.a(eth_mac_open_lib.o)
                0x9d00a0c4                EthMACOpen

.text._EthTxSchedBuffer
                0x9d00a178       0xb4
 .text._EthTxSchedBuffer
                0x9d00a178       0xb4 c:/program files (x86)/microchip/xc32/v1.34/bin/bin/../../lib/gcc/pic32mx/4.5.2/../../../../pic32mx/lib\libmchp_peripheral_32MX795F512L.a(eth_tx_packet_lib.o)

.text           0x9d00a22c      0x140
 .text          0x9d00a22c       0xa8 c:/program files (x86)/microchip/xc32/v1.34/bin/bin/../../lib/gcc/pic32mx/4.5.2/../../../../pic32mx/lib\libpic32.a(memset.o)
                0x9d00a22c                memset
 .text          0x9d00a2d4       0x98 c:/program files (x86)/microchip/xc32/v1.34/bin/bin/../../lib/gcc/pic32mx/4.5.2/../../../../pic32mx/lib\libpic32.a(memcmp.o)
                0x9d00a2d4                memcmp

.text._EthTxSchedList
                0x9d00a36c       0x88
 .text._EthTxSchedList
                0x9d00a36c       0x88 c:/program files (x86)/microchip/xc32/v1.34/bin/bin/../../lib/gcc/pic32mx/4.5.2/../../../../pic32mx/lib\libmchp_peripheral_32MX795F512L.a(eth_tx_packet_lib.o)

.text.EthMIIMConfig
                0x9d00a3f4       0x7c
 .text.EthMIIMConfig
                0x9d00a3f4       0x7c c:/program files (x86)/microchip/xc32/v1.34/bin/bin/../../lib/gcc/pic32mx/4.5.2/../../../../pic32mx/lib\libmchp_peripheral_32MX795F512L.a(eth_miim_access.o)
                0x9d00a3f4                EthMIIMConfig

.text.EthTxGetBufferStatus
                0x9d00a470       0x74
 .text.EthTxGetBufferStatus
                0x9d00a470       0x74 c:/program files (x86)/microchip/xc32/v1.34/bin/bin/../../lib/gcc/pic32mx/4.5.2/../../../../pic32mx/lib\libmchp_peripheral_32MX795F512L.a(eth_tx_packet_lib.o)
                0x9d00a470                EthTxGetBufferStatus

.text.EthRxFiltersPMSet
                0x9d00a4e4       0x6c
 .text.EthRxFiltersPMSet
                0x9d00a4e4       0x6c c:/program files (x86)/microchip/xc32/v1.34/bin/bin/../../lib/gcc/pic32mx/4.5.2/../../../../pic32mx/lib\libmchp_peripheral_32MX795F512L.a(eth_rx_filters_lib.o)
                0x9d00a4e4                EthRxFiltersPMSet

.text.calloc    0x9d00a550       0x5c
 .text.calloc   0x9d00a550       0x5c c:/program files (x86)/microchip/xc32/v1.34/bin/bin/../../lib/gcc/pic32mx/4.5.2/../../../../pic32mx/lib\libc.a(calloc.o)
                0x9d00a550                calloc

.text.INTEnable
                0x9d00a5ac       0x58
 .text.INTEnable
                0x9d00a5ac       0x58 c:/program files (x86)/microchip/xc32/v1.34/bin/bin/../../lib/gcc/pic32mx/4.5.2/../../../../pic32mx/lib\libmchp_peripheral_32MX795F512L.a(int_tbl_lib.o)
                0x9d00a5ac                INTEnable

.text.strncpy   0x9d00a604       0x58
 .text.strncpy  0x9d00a604       0x58 c:/program files (x86)/microchip/xc32/v1.34/bin/bin/../../lib/gcc/pic32mx/4.5.2/../../../../pic32mx/lib\libc.a(strncpy.o)
                0x9d00a604                strncpy

.rodata         0x9d00a65c       0x54
 .rodata        0x9d00a65c       0x54 c:/program files (x86)/microchip/xc32/v1.34/bin/bin/../../lib/gcc/pic32mx/4.5.2/../../../../pic32mx/lib\libmchp_peripheral_32MX795F512L.a(_ports_tbl_libp.o)
                0x9d00a65c                PortRegTbl

.text.sbrk      0x9d00a6b0       0x50
 .text.sbrk     0x9d00a6b0       0x50 c:/program files (x86)/microchip/xc32/v1.34/bin/bin/../../lib/gcc/pic32mx/4.5.2/../../../../pic32mx/lib\libpic32.a(sbrk.o)
                0x9d00a6b0                sbrk

.text.main_entry
                0x9d00a700       0x4c
 .text.main_entry
                0x9d00a700       0x4c c:/program files (x86)/microchip/xc32/v1.34/bin/bin/../../lib/gcc/pic32mx/4.5.2/../../../../pic32mx/lib/./proc/32MX795F512L/crt0_mips32r2.o
                0x9d00a72c                __crt0_exit

.text.EthMACSetAddress
                0x9d00a74c       0x48
 .text.EthMACSetAddress
                0x9d00a74c       0x48 c:/program files (x86)/microchip/xc32/v1.34/bin/bin/../../lib/gcc/pic32mx/4.5.2/../../../../pic32mx/lib\libmchp_peripheral_32MX795F512L.a(eth_mac_set_address_max_lib.o)
                0x9d00a74c                EthMACSetAddress

.text._bootstrap_exception_handler
                0x9d00a794       0x48
 .text._bootstrap_exception_handler
                0x9d00a794       0x48 c:/program files (x86)/microchip/xc32/v1.34/bin/bin/../../lib/gcc/pic32mx/4.5.2/../../../../pic32mx/lib\libpic32.a(default-bootstrap-exception-handler.o)
                0x9d00a794                _bootstrap_exception_handler

.text           0x9d00a7dc       0x44
 .text          0x9d00a7dc       0x44 c:/program files (x86)/microchip/xc32/v1.34/bin/bin/../../lib/gcc/pic32mx/4.5.2/../../../../pic32mx/lib\pic32_software_reset.o
                0x9d00a7dc                __pic32_software_reset

.text.EthMACGetAddress
                0x9d00a820       0x44
 .text.EthMACGetAddress
                0x9d00a820       0x44 c:/program files (x86)/microchip/xc32/v1.34/bin/bin/../../lib/gcc/pic32mx/4.5.2/../../../../pic32mx/lib\libmchp_peripheral_32MX795F512L.a(eth_mac_set_address_max_lib.o)
                0x9d00a820                EthMACGetAddress

.text.EthMIIMReadStart
                0x9d00a864       0x40
 .text.EthMIIMReadStart
                0x9d00a864       0x40 c:/program files (x86)/microchip/xc32/v1.34/bin/bin/../../lib/gcc/pic32mx/4.5.2/../../../../pic32mx/lib\libmchp_peripheral_32MX795F512L.a(eth_miim_access.o)
                0x9d00a864                EthMIIMReadStart

.text.PORTSetPinsDigitalIn
                0x9d00a8a4       0x40
 .text.PORTSetPinsDigitalIn
                0x9d00a8a4       0x40 c:/program files (x86)/microchip/xc32/v1.34/bin/bin/../../lib/gcc/pic32mx/4.5.2/../../../../pic32mx/lib\libmchp_peripheral_32MX795F512L.a(port_set_pins_digital_in_lib.o)
                0x9d00a8a4                PORTSetPinsDigitalIn

.text.PORTSetPinsDigitalOut
                0x9d00a8e4       0x40
 .text.PORTSetPinsDigitalOut
                0x9d00a8e4       0x40 c:/program files (x86)/microchip/xc32/v1.34/bin/bin/../../lib/gcc/pic32mx/4.5.2/../../../../pic32mx/lib\libmchp_peripheral_32MX795F512L.a(port_set_pins_digital_out_lib.o)
                0x9d00a8e4                PORTSetPinsDigitalOut

.text.EthRxGetBuffer
                0x9d00a924       0x3c
 .text.EthRxGetBuffer
                0x9d00a924       0x3c c:/program files (x86)/microchip/xc32/v1.34/bin/bin/../../lib/gcc/pic32mx/4.5.2/../../../../pic32mx/lib\libmchp_peripheral_32MX795F512L.a(eth_rx_get_packet_lib.o)
                0x9d00a924                EthRxGetBuffer

.text.INTSetVectorPriority
                0x9d00a960       0x3c
 .text.INTSetVectorPriority
                0x9d00a960       0x3c c:/program files (x86)/microchip/xc32/v1.34/bin/bin/../../lib/gcc/pic32mx/4.5.2/../../../../pic32mx/lib\libmchp_peripheral_32MX795F512L.a(int_tbl_lib.o)
                0x9d00a960                INTSetVectorPriority

.text.INTSetVectorSubPriority
                0x9d00a99c       0x3c
 .text.INTSetVectorSubPriority
                0x9d00a99c       0x3c c:/program files (x86)/microchip/xc32/v1.34/bin/bin/../../lib/gcc/pic32mx/4.5.2/../../../../pic32mx/lib\libmchp_peripheral_32MX795F512L.a(int_tbl_lib.o)
                0x9d00a99c                INTSetVectorSubPriority

.rodata         0x9d00a9d8       0x38
 .rodata        0x9d00a9d8       0x38 build/XC32-PIC32_ETH_SK_ETH795/production/_ext/1954962658/TCP.o
                0x9d00a9d8                TCPSocketInitializer

.text._EthFindPacket
                0x9d00aa10       0x38
 .text._EthFindPacket
                0x9d00aa10       0x38 c:/program files (x86)/microchip/xc32/v1.34/bin/bin/../../lib/gcc/pic32mx/4.5.2/../../../../pic32mx/lib\libmchp_peripheral_32MX795F512L.a(eth_tx_packet_lib.o)
                0x9d00aa10                _EthFindPacket

.text.EthMIIMWriteStart
                0x9d00aa48       0x38
 .text.EthMIIMWriteStart
                0x9d00aa48       0x38 c:/program files (x86)/microchip/xc32/v1.34/bin/bin/../../lib/gcc/pic32mx/4.5.2/../../../../pic32mx/lib\libmchp_peripheral_32MX795F512L.a(eth_miim_access.o)
                0x9d00aa48                EthMIIMWriteStart

.vector_default
                0x9d00aa80       0x38
 .vector_default
                0x9d00aa80       0x38 c:/program files (x86)/microchip/xc32/v1.34/bin/bin/../../lib/gcc/pic32mx/4.5.2/../../../../pic32mx/lib\libpic32.a(defaultinterrupt.o)
                0x9d00aa80                _DefaultInterrupt

.text.EthMIIMScanStart
                0x9d00aab8       0x34
 .text.EthMIIMScanStart
                0x9d00aab8       0x34 c:/program files (x86)/microchip/xc32/v1.34/bin/bin/../../lib/gcc/pic32mx/4.5.2/../../../../pic32mx/lib\libmchp_peripheral_32MX795F512L.a(eth_miim_access.o)
                0x9d00aab8                EthMIIMScanStart

.text.INTEnableSystemMultiVectoredInt
                0x9d00aaec       0x34
 .text.INTEnableSystemMultiVectoredInt
                0x9d00aaec       0x34 c:/program files (x86)/microchip/xc32/v1.34/bin/bin/../../lib/gcc/pic32mx/4.5.2/../../../../pic32mx/lib\libmchp_peripheral_32MX795F512L.a(int_enable_mv_int_lib.o)
                0x9d00aaec                INTEnableSystemMultiVectoredInt

.text.EthTxAcknowledgeBuffer
                0x9d00ab20       0x30
 .text.EthTxAcknowledgeBuffer
                0x9d00ab20       0x30 c:/program files (x86)/microchip/xc32/v1.34/bin/bin/../../lib/gcc/pic32mx/4.5.2/../../../../pic32mx/lib\libmchp_peripheral_32MX795F512L.a(eth_ack_packet_lib.o)
                0x9d00ab20                EthTxAcknowledgeBuffer

.text.EthTxAckBuffer
                0x9d00ab50       0x30
 .text.EthTxAckBuffer
                0x9d00ab50       0x30 c:/program files (x86)/microchip/xc32/v1.34/bin/bin/../../lib/gcc/pic32mx/4.5.2/../../../../pic32mx/lib\libmchp_peripheral_32MX795F512L.a(eth_ack_packet_lib.o)
                0x9d00ab50                EthTxAckBuffer

.text.EthRxSetBufferSize
                0x9d00ab80       0x30
 .text.EthRxSetBufferSize
                0x9d00ab80       0x30 c:/program files (x86)/microchip/xc32/v1.34/bin/bin/../../lib/gcc/pic32mx/4.5.2/../../../../pic32mx/lib\libmchp_peripheral_32MX795F512L.a(eth_rx_set_buffer_size_lib.o)
                0x9d00ab80                EthRxSetBufferSize

.text.INTGetVectorPriority
                0x9d00abb0       0x30
 .text.INTGetVectorPriority
                0x9d00abb0       0x30 c:/program files (x86)/microchip/xc32/v1.34/bin/bin/../../lib/gcc/pic32mx/4.5.2/../../../../pic32mx/lib\libmchp_peripheral_32MX795F512L.a(int_tbl_lib.o)
                0x9d00abb0                INTGetVectorPriority

.text.INTGetVectorSubPriority
                0x9d00abe0       0x30
 .text.INTGetVectorSubPriority
                0x9d00abe0       0x30 c:/program files (x86)/microchip/xc32/v1.34/bin/bin/../../lib/gcc/pic32mx/4.5.2/../../../../pic32mx/lib\libmchp_peripheral_32MX795F512L.a(int_tbl_lib.o)
                0x9d00abe0                INTGetVectorSubPriority

.text.free      0x9d00ac10       0x30
 .text.free     0x9d00ac10       0x30 c:/program files (x86)/microchip/xc32/v1.34/bin/bin/../../lib/gcc/pic32mx/4.5.2/../../../../pic32mx/lib\libc.a(malloc.o)
                0x9d00ac10                free

.text.INTClearFlag
                0x9d00ac40       0x2c
 .text.INTClearFlag
                0x9d00ac40       0x2c c:/program files (x86)/microchip/xc32/v1.34/bin/bin/../../lib/gcc/pic32mx/4.5.2/../../../../pic32mx/lib\libmchp_peripheral_32MX795F512L.a(int_tbl_lib.o)
                0x9d00ac40                INTClearFlag

.text.INTSetFlag
                0x9d00ac6c       0x2c
 .text.INTSetFlag
                0x9d00ac6c       0x2c c:/program files (x86)/microchip/xc32/v1.34/bin/bin/../../lib/gcc/pic32mx/4.5.2/../../../../pic32mx/lib\libmchp_peripheral_32MX795F512L.a(int_tbl_lib.o)
                0x9d00ac6c                INTSetFlag

.text.INTGetFlag
                0x9d00ac98       0x2c
 .text.INTGetFlag
                0x9d00ac98       0x2c c:/program files (x86)/microchip/xc32/v1.34/bin/bin/../../lib/gcc/pic32mx/4.5.2/../../../../pic32mx/lib\libmchp_peripheral_32MX795F512L.a(int_tbl_lib.o)
                0x9d00ac98                INTGetFlag

.text.INTGetEnable
                0x9d00acc4       0x2c
 .text.INTGetEnable
                0x9d00acc4       0x2c c:/program files (x86)/microchip/xc32/v1.34/bin/bin/../../lib/gcc/pic32mx/4.5.2/../../../../pic32mx/lib\libmchp_peripheral_32MX795F512L.a(int_tbl_lib.o)
                0x9d00acc4                INTGetEnable

.text._stub_sbd_memlayout
                0x9d00acf0       0x2c
 .text._stub_sbd_memlayout
                0x9d00acf0       0x2c c:/program files (x86)/microchip/xc32/v1.34/bin/bin/../../lib/gcc/pic32mx/4.5.2/../../../../pic32mx/lib\libpic32.a(sbrk.o)
                0x9d00acf0                _sbd_memlayout
                0x9d00acf0                _stub_sbd_memlayout

.text.EthMIIMReadResult
                0x9d00ad1c       0x28
 .text.EthMIIMReadResult
                0x9d00ad1c       0x28 c:/program files (x86)/microchip/xc32/v1.34/bin/bin/../../lib/gcc/pic32mx/4.5.2/../../../../pic32mx/lib\libmchp_peripheral_32MX795F512L.a(eth_miim_access.o)
                0x9d00ad1c                EthMIIMReadResult

.text.EthMIIMScanResult
                0x9d00ad44       0x20
 .text.EthMIIMScanResult
                0x9d00ad44       0x20 c:/program files (x86)/microchip/xc32/v1.34/bin/bin/../../lib/gcc/pic32mx/4.5.2/../../../../pic32mx/lib\libmchp_peripheral_32MX795F512L.a(eth_miim_access.o)
                0x9d00ad44                EthMIIMScanResult

.text.EthRxAcknowledgeBuffer
                0x9d00ad64       0x1c
 .text.EthRxAcknowledgeBuffer
                0x9d00ad64       0x1c c:/program files (x86)/microchip/xc32/v1.34/bin/bin/../../lib/gcc/pic32mx/4.5.2/../../../../pic32mx/lib\libmchp_peripheral_32MX795F512L.a(eth_ack_packet_lib.o)
                0x9d00ad64                EthRxAcknowledgeBuffer

.text.EthRxAckBuffer
                0x9d00ad80       0x1c
 .text.EthRxAckBuffer
                0x9d00ad80       0x1c c:/program files (x86)/microchip/xc32/v1.34/bin/bin/../../lib/gcc/pic32mx/4.5.2/../../../../pic32mx/lib\libmchp_peripheral_32MX795F512L.a(eth_ack_packet_lib.o)
                0x9d00ad80                EthRxAckBuffer

.text.INTRestoreInterrupts
                0x9d00ad9c       0x1c
 .text.INTRestoreInterrupts
                0x9d00ad9c       0x1c c:/program files (x86)/microchip/xc32/v1.34/bin/bin/../../lib/gcc/pic32mx/4.5.2/../../../../pic32mx/lib\libmchp_peripheral_32MX795F512L.a(int_restore_interrupts_lib.o)
                0x9d00ad9c                INTRestoreInterrupts

.text.EthRxFiltersHTSet
                0x9d00adb8       0x18
 .text.EthRxFiltersHTSet
                0x9d00adb8       0x18 c:/program files (x86)/microchip/xc32/v1.34/bin/bin/../../lib/gcc/pic32mx/4.5.2/../../../../pic32mx/lib\libmchp_peripheral_32MX795F512L.a(eth_rx_filters_lib.o)
                0x9d00adb8                EthRxFiltersHTSet

.text.CheKseg0CacheOff
                0x9d00add0       0x18
 .text.CheKseg0CacheOff
                0x9d00add0       0x18 c:/program files (x86)/microchip/xc32/v1.34/bin/bin/../../lib/gcc/pic32mx/4.5.2/../../../../pic32mx/lib\libmchp_peripheral_32MX795F512L.a(pcache.o)
                0x9d00add0                CheKseg0CacheOff

.text.CheKseg0CacheOn
                0x9d00ade8       0x18
 .text.CheKseg0CacheOn
                0x9d00ade8       0x18 c:/program files (x86)/microchip/xc32/v1.34/bin/bin/../../lib/gcc/pic32mx/4.5.2/../../../../pic32mx/lib\libmchp_peripheral_32MX795F512L.a(pcache.o)
                0x9d00ade8                CheKseg0CacheOn

.text           0x9d00ae00       0x18
 .text          0x9d00ae00       0x18 c:/program files (x86)/microchip/xc32/v1.34/bin/bin/../../lib/gcc/pic32mx/4.5.2/../../../../pic32mx/lib\libpic32.a(default-nmi-handler.o)
                0x9d00ae00                _nmi_handler

.rodata         0x9d00ae18       0x14
 .rodata        0x9d00ae18       0x14 build/XC32-PIC32_ETH_SK_ETH795/production/_ext/1472/MainDemo.o

.text.EthMACSetMaxFrame
                0x9d00ae2c       0x14
 .text.EthMACSetMaxFrame
                0x9d00ae2c       0x14 c:/program files (x86)/microchip/xc32/v1.34/bin/bin/../../lib/gcc/pic32mx/4.5.2/../../../../pic32mx/lib\libmchp_peripheral_32MX795F512L.a(eth_mac_set_address_max_lib.o)
                0x9d00ae2c                EthMACSetMaxFrame

.text.EthRxFiltersPMClr
                0x9d00ae40       0x14
 .text.EthRxFiltersPMClr
                0x9d00ae40       0x14 c:/program files (x86)/microchip/xc32/v1.34/bin/bin/../../lib/gcc/pic32mx/4.5.2/../../../../pic32mx/lib\libmchp_peripheral_32MX795F512L.a(eth_rx_filters_lib.o)
                0x9d00ae40                EthRxFiltersPMClr

.text.EthRxFiltersSet
                0x9d00ae54       0x10
 .text.EthRxFiltersSet
                0x9d00ae54       0x10 c:/program files (x86)/microchip/xc32/v1.34/bin/bin/../../lib/gcc/pic32mx/4.5.2/../../../../pic32mx/lib\libmchp_peripheral_32MX795F512L.a(eth_rx_filters_lib.o)
                0x9d00ae54                EthRxFiltersSet

.text.EthRxFiltersClr
                0x9d00ae64       0x10
 .text.EthRxFiltersClr
                0x9d00ae64       0x10 c:/program files (x86)/microchip/xc32/v1.34/bin/bin/../../lib/gcc/pic32mx/4.5.2/../../../../pic32mx/lib\libmchp_peripheral_32MX795F512L.a(eth_rx_filters_lib.o)
                0x9d00ae64                EthRxFiltersClr

.text.EthRxFiltersWrite
                0x9d00ae74       0x10
 .text.EthRxFiltersWrite
                0x9d00ae74       0x10 c:/program files (x86)/microchip/xc32/v1.34/bin/bin/../../lib/gcc/pic32mx/4.5.2/../../../../pic32mx/lib\libmchp_peripheral_32MX795F512L.a(eth_rx_filters_lib.o)
                0x9d00ae74                EthRxFiltersWrite

.rodata         0x9d00ae84       0x18
 .rodata        0x9d00ae84       0x10 c:/program files (x86)/microchip/xc32/v1.34/bin/bin/../../lib/gcc/pic32mx/4.5.2/../../../../pic32mx/lib\libmchp_peripheral_32MX795F512L.a(eth_miim_access.o)
 .rodata        0x9d00ae94        0x8 build/XC32-PIC32_ETH_SK_ETH795/production/_ext/1954962658/ETHPIC32IntMac.o

.text.ReadCoreTimer
                0x9d00ae9c        0x8
 .text.ReadCoreTimer
                0x9d00ae9c        0x8 c:/program files (x86)/microchip/xc32/v1.34/bin/bin/../../lib/gcc/pic32mx/4.5.2/../../../../pic32mx/lib\libmchp_peripheral.a(read_core_timer_lib.o)
                0x9d00ae9c                ReadCoreTimer

.text.INTDisableInterrupts
                0x9d00aea4        0x8
 .text.INTDisableInterrupts
                0x9d00aea4        0x8 c:/program files (x86)/microchip/xc32/v1.34/bin/bin/../../lib/gcc/pic32mx/4.5.2/../../../../pic32mx/lib\libmchp_peripheral_32MX795F512L.a(int_disable_interrupts_lib.o)
                0x9d00aea4                INTDisableInterrupts

.text.INTEnableInterrupts
                0x9d00aeac        0x8
 .text.INTEnableInterrupts
                0x9d00aeac        0x8 c:/program files (x86)/microchip/xc32/v1.34/bin/bin/../../lib/gcc/pic32mx/4.5.2/../../../../pic32mx/lib\libmchp_peripheral_32MX795F512L.a(int_enable_interrupts_lib.o)
                0x9d00aeac                INTEnableInterrupts

.text._on_reset
                0x9d00aeb4        0x8
 .text._on_reset
                0x9d00aeb4        0x8 c:/program files (x86)/microchip/xc32/v1.34/bin/bin/../../lib/gcc/pic32mx/4.5.2/../../../../pic32mx/lib\libpic32.a(default-on-reset.o)
                0x9d00aeb4                _on_reset

.text._on_bootstrap
                0x9d00aebc        0x8
 .text._on_bootstrap
                0x9d00aebc        0x8 c:/program files (x86)/microchip/xc32/v1.34/bin/bin/../../lib/gcc/pic32mx/4.5.2/../../../../pic32mx/lib\libpic32.a(default-on-bootstrap.o)
                0x9d00aebc                _on_bootstrap

.text.getpagesize
                0x9d00aec4        0x8
 .text.getpagesize
                0x9d00aec4        0x8 c:/program files (x86)/microchip/xc32/v1.34/bin/bin/../../lib/gcc/pic32mx/4.5.2/../../../../pic32mx/lib\libpic32.a(sbrk.o)
                0x9d00aec4                getpagesize

.text%z294      0x00000000        0x0
 .text          0x00000000        0x0 c:/program files (x86)/microchip/xc32/v1.34/bin/bin/../../lib/gcc/pic32mx/4.5.2/../../../../pic32mx/lib\libpic32.a(errno.o)

.text%z295      0x00000000        0x0
 .text          0x00000000        0x0 c:/program files (x86)/microchip/xc32/v1.34/bin/bin/../../lib/gcc/pic32mx/4.5.2/../../../../pic32mx/lib\libpic32.a(sbrk.o)

.text%z296      0x00000000        0x0
 .text          0x00000000        0x0 c:/program files (x86)/microchip/xc32/v1.34/bin/bin/../../lib/gcc/pic32mx/4.5.2/../../../../pic32mx/lib\libc.a(strncpy.o)

.text%z297      0x00000000        0x0
 .text          0x00000000        0x0 c:/program files (x86)/microchip/xc32/v1.34/bin/bin/../../lib/gcc/pic32mx/4.5.2/../../../../pic32mx/lib\libc.a(malloc.o)

.text%z298      0x00000000        0x0
 .text          0x00000000        0x0 c:/program files (x86)/microchip/xc32/v1.34/bin/bin/../../lib/gcc/pic32mx/4.5.2/../../../../pic32mx/lib\libc.a(calloc.o)

.text%z299      0x00000000        0x0
 .text          0x00000000        0x0 c:/program files (x86)/microchip/xc32/v1.34/bin/bin/../../lib/gcc/pic32mx/4.5.2/../../../../pic32mx/lib\libpic32.a(defaultinterrupt.o)

.text%z300      0x00000000        0x0
 .text          0x00000000        0x0 c:/program files (x86)/microchip/xc32/v1.34/bin/bin/../../lib/gcc/pic32mx/4.5.2/../../../../pic32mx/lib\libpic32.a(vector51.o)

.text%z301      0x00000000        0x0
 .text          0x00000000        0x0 c:/program files (x86)/microchip/xc32/v1.34/bin/bin/../../lib/gcc/pic32mx/4.5.2/../../../../pic32mx/lib\libpic32.a(vector50.o)

.text%z302      0x00000000        0x0
 .text          0x00000000        0x0 c:/program files (x86)/microchip/xc32/v1.34/bin/bin/../../lib/gcc/pic32mx/4.5.2/../../../../pic32mx/lib\libpic32.a(vector49.o)

.text%z303      0x00000000        0x0
 .text          0x00000000        0x0 c:/program files (x86)/microchip/xc32/v1.34/bin/bin/../../lib/gcc/pic32mx/4.5.2/../../../../pic32mx/lib\libpic32.a(vector48.o)

.text%z304      0x00000000        0x0
 .text          0x00000000        0x0 c:/program files (x86)/microchip/xc32/v1.34/bin/bin/../../lib/gcc/pic32mx/4.5.2/../../../../pic32mx/lib\libpic32.a(vector47.o)

.text%z305      0x00000000        0x0
 .text          0x00000000        0x0 c:/program files (x86)/microchip/xc32/v1.34/bin/bin/../../lib/gcc/pic32mx/4.5.2/../../../../pic32mx/lib\libpic32.a(vector46.o)

.text%z306      0x00000000        0x0
 .text          0x00000000        0x0 c:/program files (x86)/microchip/xc32/v1.34/bin/bin/../../lib/gcc/pic32mx/4.5.2/../../../../pic32mx/lib\libpic32.a(vector45.o)

.text%z307      0x00000000        0x0
 .text          0x00000000        0x0 c:/program files (x86)/microchip/xc32/v1.34/bin/bin/../../lib/gcc/pic32mx/4.5.2/../../../../pic32mx/lib\libpic32.a(vector44.o)

.text%z308      0x00000000        0x0
 .text          0x00000000        0x0 c:/program files (x86)/microchip/xc32/v1.34/bin/bin/../../lib/gcc/pic32mx/4.5.2/../../../../pic32mx/lib\libpic32.a(vector43.o)

.text%z309      0x00000000        0x0
 .text          0x00000000        0x0 c:/program files (x86)/microchip/xc32/v1.34/bin/bin/../../lib/gcc/pic32mx/4.5.2/../../../../pic32mx/lib\libpic32.a(vector42.o)

.text%z310      0x00000000        0x0
 .text          0x00000000        0x0 c:/program files (x86)/microchip/xc32/v1.34/bin/bin/../../lib/gcc/pic32mx/4.5.2/../../../../pic32mx/lib\libpic32.a(vector41.o)

.text%z311      0x00000000        0x0
 .text          0x00000000        0x0 c:/program files (x86)/microchip/xc32/v1.34/bin/bin/../../lib/gcc/pic32mx/4.5.2/../../../../pic32mx/lib\libpic32.a(vector40.o)

.text%z312      0x00000000        0x0
 .text          0x00000000        0x0 c:/program files (x86)/microchip/xc32/v1.34/bin/bin/../../lib/gcc/pic32mx/4.5.2/../../../../pic32mx/lib\libpic32.a(vector39.o)

.text%z313      0x00000000        0x0
 .text          0x00000000        0x0 c:/program files (x86)/microchip/xc32/v1.34/bin/bin/../../lib/gcc/pic32mx/4.5.2/../../../../pic32mx/lib\libpic32.a(vector38.o)

.text%z314      0x00000000        0x0
 .text          0x00000000        0x0 c:/program files (x86)/microchip/xc32/v1.34/bin/bin/../../lib/gcc/pic32mx/4.5.2/../../../../pic32mx/lib\libpic32.a(vector37.o)

.text%z315      0x00000000        0x0
 .text          0x00000000        0x0 c:/program files (x86)/microchip/xc32/v1.34/bin/bin/../../lib/gcc/pic32mx/4.5.2/../../../../pic32mx/lib\libpic32.a(vector36.o)

.text%z316      0x00000000        0x0
 .text          0x00000000        0x0 c:/program files (x86)/microchip/xc32/v1.34/bin/bin/../../lib/gcc/pic32mx/4.5.2/../../../../pic32mx/lib\libpic32.a(vector35.o)

.text%z317      0x00000000        0x0
 .text          0x00000000        0x0 c:/program files (x86)/microchip/xc32/v1.34/bin/bin/../../lib/gcc/pic32mx/4.5.2/../../../../pic32mx/lib\libpic32.a(vector34.o)

.text%z318      0x00000000        0x0
 .text          0x00000000        0x0 c:/program files (x86)/microchip/xc32/v1.34/bin/bin/../../lib/gcc/pic32mx/4.5.2/../../../../pic32mx/lib\libpic32.a(vector33.o)

.text%z319      0x00000000        0x0
 .text          0x00000000        0x0 c:/program files (x86)/microchip/xc32/v1.34/bin/bin/../../lib/gcc/pic32mx/4.5.2/../../../../pic32mx/lib\libpic32.a(vector32.o)

.text%z320      0x00000000        0x0
 .text          0x00000000        0x0 c:/program files (x86)/microchip/xc32/v1.34/bin/bin/../../lib/gcc/pic32mx/4.5.2/../../../../pic32mx/lib\libpic32.a(vector31.o)

.text%z321      0x00000000        0x0
 .text          0x00000000        0x0 c:/program files (x86)/microchip/xc32/v1.34/bin/bin/../../lib/gcc/pic32mx/4.5.2/../../../../pic32mx/lib\libpic32.a(vector30.o)

.text%z322      0x00000000        0x0
 .text          0x00000000        0x0 c:/program files (x86)/microchip/xc32/v1.34/bin/bin/../../lib/gcc/pic32mx/4.5.2/../../../../pic32mx/lib\libpic32.a(vector29.o)

.text%z323      0x00000000        0x0
 .text          0x00000000        0x0 c:/program files (x86)/microchip/xc32/v1.34/bin/bin/../../lib/gcc/pic32mx/4.5.2/../../../../pic32mx/lib\libpic32.a(vector28.o)

.text%z324      0x00000000        0x0
 .text          0x00000000        0x0 c:/program files (x86)/microchip/xc32/v1.34/bin/bin/../../lib/gcc/pic32mx/4.5.2/../../../../pic32mx/lib\libpic32.a(vector27.o)

.text%z325      0x00000000        0x0
 .text          0x00000000        0x0 c:/program files (x86)/microchip/xc32/v1.34/bin/bin/../../lib/gcc/pic32mx/4.5.2/../../../../pic32mx/lib\libpic32.a(vector26.o)

.text%z326      0x00000000        0x0
 .text          0x00000000        0x0 c:/program files (x86)/microchip/xc32/v1.34/bin/bin/../../lib/gcc/pic32mx/4.5.2/../../../../pic32mx/lib\libpic32.a(vector25.o)

.text%z327      0x00000000        0x0
 .text          0x00000000        0x0 c:/program files (x86)/microchip/xc32/v1.34/bin/bin/../../lib/gcc/pic32mx/4.5.2/../../../../pic32mx/lib\libpic32.a(vector24.o)

.text%z328      0x00000000        0x0
 .text          0x00000000        0x0 c:/program files (x86)/microchip/xc32/v1.34/bin/bin/../../lib/gcc/pic32mx/4.5.2/../../../../pic32mx/lib\libpic32.a(vector23.o)

.text%z329      0x00000000        0x0
 .text          0x00000000        0x0 c:/program files (x86)/microchip/xc32/v1.34/bin/bin/../../lib/gcc/pic32mx/4.5.2/../../../../pic32mx/lib\libpic32.a(vector22.o)

.text%z330      0x00000000        0x0
 .text          0x00000000        0x0 c:/program files (x86)/microchip/xc32/v1.34/bin/bin/../../lib/gcc/pic32mx/4.5.2/../../../../pic32mx/lib\libpic32.a(vector21.o)

.text%z331      0x00000000        0x0
 .text          0x00000000        0x0 c:/program files (x86)/microchip/xc32/v1.34/bin/bin/../../lib/gcc/pic32mx/4.5.2/../../../../pic32mx/lib\libpic32.a(vector20.o)

.text%z332      0x00000000        0x0
 .text          0x00000000        0x0 c:/program files (x86)/microchip/xc32/v1.34/bin/bin/../../lib/gcc/pic32mx/4.5.2/../../../../pic32mx/lib\libpic32.a(vector19.o)

.text%z333      0x00000000        0x0
 .text          0x00000000        0x0 c:/program files (x86)/microchip/xc32/v1.34/bin/bin/../../lib/gcc/pic32mx/4.5.2/../../../../pic32mx/lib\libpic32.a(vector18.o)

.text%z334      0x00000000        0x0
 .text          0x00000000        0x0 c:/program files (x86)/microchip/xc32/v1.34/bin/bin/../../lib/gcc/pic32mx/4.5.2/../../../../pic32mx/lib\libpic32.a(vector17.o)

.text%z335      0x00000000        0x0
 .text          0x00000000        0x0 c:/program files (x86)/microchip/xc32/v1.34/bin/bin/../../lib/gcc/pic32mx/4.5.2/../../../../pic32mx/lib\libpic32.a(vector16.o)

.text%z336      0x00000000        0x0
 .text          0x00000000        0x0 c:/program files (x86)/microchip/xc32/v1.34/bin/bin/../../lib/gcc/pic32mx/4.5.2/../../../../pic32mx/lib\libpic32.a(vector15.o)

.text%z337      0x00000000        0x0
 .text          0x00000000        0x0 c:/program files (x86)/microchip/xc32/v1.34/bin/bin/../../lib/gcc/pic32mx/4.5.2/../../../../pic32mx/lib\libpic32.a(vector14.o)

.text%z338      0x00000000        0x0
 .text          0x00000000        0x0 c:/program files (x86)/microchip/xc32/v1.34/bin/bin/../../lib/gcc/pic32mx/4.5.2/../../../../pic32mx/lib\libpic32.a(vector13.o)

.text%z339      0x00000000        0x0
 .text          0x00000000        0x0 c:/program files (x86)/microchip/xc32/v1.34/bin/bin/../../lib/gcc/pic32mx/4.5.2/../../../../pic32mx/lib\libpic32.a(vector12.o)

.text%z340      0x00000000        0x0
 .text          0x00000000        0x0 c:/program files (x86)/microchip/xc32/v1.34/bin/bin/../../lib/gcc/pic32mx/4.5.2/../../../../pic32mx/lib\libpic32.a(vector11.o)

.text%z341      0x00000000        0x0
 .text          0x00000000        0x0 c:/program files (x86)/microchip/xc32/v1.34/bin/bin/../../lib/gcc/pic32mx/4.5.2/../../../../pic32mx/lib\libpic32.a(vector10.o)

.text%z342      0x00000000        0x0
 .text          0x00000000        0x0 c:/program files (x86)/microchip/xc32/v1.34/bin/bin/../../lib/gcc/pic32mx/4.5.2/../../../../pic32mx/lib\libpic32.a(vector9.o)

.text%z343      0x00000000        0x0
 .text          0x00000000        0x0 c:/program files (x86)/microchip/xc32/v1.34/bin/bin/../../lib/gcc/pic32mx/4.5.2/../../../../pic32mx/lib\libpic32.a(vector8.o)

.text%z344      0x00000000        0x0
 .text          0x00000000        0x0 c:/program files (x86)/microchip/xc32/v1.34/bin/bin/../../lib/gcc/pic32mx/4.5.2/../../../../pic32mx/lib\libpic32.a(vector7.o)

.text%z345      0x00000000        0x0
 .text          0x00000000        0x0 c:/program files (x86)/microchip/xc32/v1.34/bin/bin/../../lib/gcc/pic32mx/4.5.2/../../../../pic32mx/lib\libpic32.a(vector6.o)

.text%z346      0x00000000        0x0
 .text          0x00000000        0x0 c:/program files (x86)/microchip/xc32/v1.34/bin/bin/../../lib/gcc/pic32mx/4.5.2/../../../../pic32mx/lib\libpic32.a(vector5.o)

.text%z347      0x00000000        0x0
 .text          0x00000000        0x0 c:/program files (x86)/microchip/xc32/v1.34/bin/bin/../../lib/gcc/pic32mx/4.5.2/../../../../pic32mx/lib\libpic32.a(vector3.o)

.text%z348      0x00000000        0x0
 .text          0x00000000        0x0 c:/program files (x86)/microchip/xc32/v1.34/bin/bin/../../lib/gcc/pic32mx/4.5.2/../../../../pic32mx/lib\libpic32.a(vector2.o)

.text%z349      0x00000000        0x0
 .text          0x00000000        0x0 c:/program files (x86)/microchip/xc32/v1.34/bin/bin/../../lib/gcc/pic32mx/4.5.2/../../../../pic32mx/lib\libpic32.a(vector1.o)

.text%z350      0x00000000        0x0
 .text          0x00000000        0x0 c:/program files (x86)/microchip/xc32/v1.34/bin/bin/../../lib/gcc/pic32mx/4.5.2/../../../../pic32mx/lib\libpic32.a(vector0.o)

.text%z351      0x00000000        0x0
 .text          0x00000000        0x0 c:/program files (x86)/microchip/xc32/v1.34/bin/bin/../../lib/gcc/pic32mx/4.5.2/../../../../pic32mx/lib\libpic32.a(general-exception.o)

.text%z352      0x00000000        0x0
 .text          0x00000000        0x0 c:/program files (x86)/microchip/xc32/v1.34/bin/bin/../../lib/gcc/pic32mx/4.5.2/../../../../pic32mx/lib\libpic32.a(default-on-bootstrap.o)

.text%z353      0x00000000        0x0
 .text          0x00000000        0x0 c:/program files (x86)/microchip/xc32/v1.34/bin/bin/../../lib/gcc/pic32mx/4.5.2/../../../../pic32mx/lib\libpic32.a(default-on-reset.o)

.text%z354      0x00000000        0x0
 .text          0x00000000        0x0 c:/program files (x86)/microchip/xc32/v1.34/bin/bin/../../lib/gcc/pic32mx/4.5.2/../../../../pic32mx/lib\libpic32.a(default-bootstrap-exception-handler.o)

.text%z355      0x00000000        0x0
 .text          0x00000000        0x0 c:/program files (x86)/microchip/xc32/v1.34/bin/bin/../../lib/gcc/pic32mx/4.5.2/../../../../pic32mx/lib\libmchp_peripheral_32MX795F512L.a(int_enable_interrupts_lib.o)

.text%z356      0x00000000        0x0
 .text          0x00000000        0x0 c:/program files (x86)/microchip/xc32/v1.34/bin/bin/../../lib/gcc/pic32mx/4.5.2/../../../../pic32mx/lib\libmchp_peripheral_32MX795F512L.a(_ports_tbl_libp.o)

.text%z357      0x00000000        0x0
 .text          0x00000000        0x0 c:/program files (x86)/microchip/xc32/v1.34/bin/bin/../../lib/gcc/pic32mx/4.5.2/../../../../pic32mx/lib\libmchp_peripheral_32MX795F512L.a(port_set_pins_digital_out_lib.o)

.text%z358      0x00000000        0x0
 .text          0x00000000        0x0 c:/program files (x86)/microchip/xc32/v1.34/bin/bin/../../lib/gcc/pic32mx/4.5.2/../../../../pic32mx/lib\libmchp_peripheral_32MX795F512L.a(port_set_pins_digital_in_lib.o)

.text%z359      0x00000000        0x0
 .text          0x00000000        0x0 c:/program files (x86)/microchip/xc32/v1.34/bin/bin/../../lib/gcc/pic32mx/4.5.2/../../../../pic32mx/lib\libmchp_peripheral_32MX795F512L.a(int_tbl_lib.o)

.text%z360      0x00000000        0x0
 .text          0x00000000        0x0 c:/program files (x86)/microchip/xc32/v1.34/bin/bin/../../lib/gcc/pic32mx/4.5.2/../../../../pic32mx/lib\libmchp_peripheral_32MX795F512L.a(int_enable_mv_int_lib.o)

.text%z361      0x00000000        0x0
 .text          0x00000000        0x0 c:/program files (x86)/microchip/xc32/v1.34/bin/bin/../../lib/gcc/pic32mx/4.5.2/../../../../pic32mx/lib\libmchp_peripheral_32MX795F512L.a(int_restore_interrupts_lib.o)

.text%z362      0x00000000        0x0
 .text          0x00000000        0x0 c:/program files (x86)/microchip/xc32/v1.34/bin/bin/../../lib/gcc/pic32mx/4.5.2/../../../../pic32mx/lib\libmchp_peripheral_32MX795F512L.a(int_disable_interrupts_lib.o)

.text%z363      0x00000000        0x0
 .text          0x00000000        0x0 c:/program files (x86)/microchip/xc32/v1.34/bin/bin/../../lib/gcc/pic32mx/4.5.2/../../../../pic32mx/lib\libmchp_peripheral_32MX795F512L.a(pcache.o)

.text%z364      0x00000000        0x0
 .text          0x00000000        0x0 c:/program files (x86)/microchip/xc32/v1.34/bin/bin/../../lib/gcc/pic32mx/4.5.2/../../../../pic32mx/lib\libmchp_peripheral_32MX795F512L.a(eth_miim_access.o)

.text%z365      0x00000000        0x0
 .text          0x00000000        0x0 c:/program files (x86)/microchip/xc32/v1.34/bin/bin/../../lib/gcc/pic32mx/4.5.2/../../../../pic32mx/lib\libmchp_peripheral_32MX795F512L.a(_eth_append_busy_list_lib.o)

.text%z366      0x00000000        0x0
 .text          0x00000000        0x0 c:/program files (x86)/microchip/xc32/v1.34/bin/bin/../../lib/gcc/pic32mx/4.5.2/../../../../pic32mx/lib\libmchp_peripheral_32MX795F512L.a(eth_tx_packet_lib.o)

.text%z367      0x00000000        0x0
 .text          0x00000000        0x0 c:/program files (x86)/microchip/xc32/v1.34/bin/bin/../../lib/gcc/pic32mx/4.5.2/../../../../pic32mx/lib\libmchp_peripheral_32MX795F512L.a(eth_rx_set_buffer_size_lib.o)

.text%z368      0x00000000        0x0
 .text          0x00000000        0x0 c:/program files (x86)/microchip/xc32/v1.34/bin/bin/../../lib/gcc/pic32mx/4.5.2/../../../../pic32mx/lib\libmchp_peripheral_32MX795F512L.a(eth_rx_get_packet_lib.o)

.text%z369      0x00000000        0x0
 .text          0x00000000        0x0 c:/program files (x86)/microchip/xc32/v1.34/bin/bin/../../lib/gcc/pic32mx/4.5.2/../../../../pic32mx/lib\libmchp_peripheral_32MX795F512L.a(eth_rx_filters_lib.o)

.text%z370      0x00000000        0x0
 .text          0x00000000        0x0 c:/program files (x86)/microchip/xc32/v1.34/bin/bin/../../lib/gcc/pic32mx/4.5.2/../../../../pic32mx/lib\libmchp_peripheral_32MX795F512L.a(eth_rx_buffers_append_lib.o)

.text%z371      0x00000000        0x0
 .text          0x00000000        0x0 c:/program files (x86)/microchip/xc32/v1.34/bin/bin/../../lib/gcc/pic32mx/4.5.2/../../../../pic32mx/lib\libmchp_peripheral_32MX795F512L.a(eth_mac_set_address_max_lib.o)

.text%z372      0x00000000        0x0
 .text          0x00000000        0x0 c:/program files (x86)/microchip/xc32/v1.34/bin/bin/../../lib/gcc/pic32mx/4.5.2/../../../../pic32mx/lib\libmchp_peripheral_32MX795F512L.a(eth_mac_open_lib.o)

.text%z373      0x00000000        0x0
 .text          0x00000000        0x0 c:/program files (x86)/microchip/xc32/v1.34/bin/bin/../../lib/gcc/pic32mx/4.5.2/../../../../pic32mx/lib\libmchp_peripheral_32MX795F512L.a(eth_init_lib.o)

.text%z374      0x00000000        0x0
 .text          0x00000000        0x0 c:/program files (x86)/microchip/xc32/v1.34/bin/bin/../../lib/gcc/pic32mx/4.5.2/../../../../pic32mx/lib\libmchp_peripheral_32MX795F512L.a(eth_descriptors_add_lib.o)

.text%z375      0x00000000        0x0
 .text          0x00000000        0x0 c:/program files (x86)/microchip/xc32/v1.34/bin/bin/../../lib/gcc/pic32mx/4.5.2/../../../../pic32mx/lib\libmchp_peripheral_32MX795F512L.a(eth_ack_packet_lib.o)

.text%z376      0x00000000        0x0
 .text          0x00000000        0x0 c:/program files (x86)/microchip/xc32/v1.34/bin/bin/../../lib/gcc/pic32mx/4.5.2/../../../../pic32mx/lib\libmchp_peripheral.a(read_core_timer_lib.o)

.text%z377      0x00000000        0x0
 .text          0x00000000        0x0 c:/program files (x86)/microchip/xc32/v1.34/bin/bin/../../lib/gcc/pic32mx/4.5.2/../../../../pic32mx/lib/./proc/32MX795F512L\processor.o

.text%z378      0x00000000        0x0
 .text          0x00000000        0x0 c:/program files (x86)/microchip/xc32/v1.34/bin/bin/../../lib/gcc/pic32mx/4.5.2/../../../../pic32mx/lib/./proc/32MX795F512L\default_isr_vectors.o

.text%z379      0x00000000        0x0
 .text          0x00000000        0x0 build/XC32-PIC32_ETH_SK_ETH795/production/_ext/1954962658/ZeroconfMulticastDNS.o

.text%z380      0x00000000        0x0
 .text          0x00000000        0x0 build/XC32-PIC32_ETH_SK_ETH795/production/_ext/1954962658/ZeroconfLinkLocal.o

.text%z381      0x00000000        0x0
 .text          0x00000000        0x0 build/XC32-PIC32_ETH_SK_ETH795/production/_ext/1954962658/ZeroconfHelper.o

.text%z382      0x00000000        0x0
 .text          0x00000000        0x0 build/XC32-PIC32_ETH_SK_ETH795/production/_ext/1954962658/UDPPerformanceTest.o

.text%z383      0x00000000        0x0
 .text          0x00000000        0x0 build/XC32-PIC32_ETH_SK_ETH795/production/_ext/1954962658/UART2TCPBridge.o

.text%z384      0x00000000        0x0
 .text          0x00000000        0x0 build/XC32-PIC32_ETH_SK_ETH795/production/_ext/1954962658/UART.o

.text%z385      0x00000000        0x0
 .text          0x00000000        0x0 build/XC32-PIC32_ETH_SK_ETH795/production/_ext/1954962658/Telnet.o

.text%z386      0x00000000        0x0
 .text          0x00000000        0x0 build/XC32-PIC32_ETH_SK_ETH795/production/_ext/1954962658/TFTPc.o

.text%z387      0x00000000        0x0
 .text          0x00000000        0x0 build/XC32-PIC32_ETH_SK_ETH795/production/_ext/1954962658/TCPPerformanceTest.o

.text%z388      0x00000000        0x0
 .text          0x00000000        0x0 build/XC32-PIC32_ETH_SK_ETH795/production/_ext/1954962658/TCP.o

.text%z389      0x00000000        0x0
 .text          0x00000000        0x0 build/XC32-PIC32_ETH_SK_ETH795/production/_ext/1954962658/SSL.o

.text%z390      0x00000000        0x0
 .text          0x00000000        0x0 build/XC32-PIC32_ETH_SK_ETH795/production/_ext/1954962658/SPIRAM.o

.text%z391      0x00000000        0x0
 .text          0x00000000        0x0 build/XC32-PIC32_ETH_SK_ETH795/production/_ext/1954962658/SPIFlash.o

.text%z392      0x00000000        0x0
 .text          0x00000000        0x0 build/XC32-PIC32_ETH_SK_ETH795/production/_ext/1954962658/SPIEEPROM.o

.text%z393      0x00000000        0x0
 .text          0x00000000        0x0 build/XC32-PIC32_ETH_SK_ETH795/production/_ext/1954962658/SNTP.o

.text%z394      0x00000000        0x0
 .text          0x00000000        0x0 build/XC32-PIC32_ETH_SK_ETH795/production/_ext/1954962658/SNMPv3USM.o

.text%z395      0x00000000        0x0
 .text          0x00000000        0x0 build/XC32-PIC32_ETH_SK_ETH795/production/_ext/1954962658/SNMPv3.o

.text%z396      0x00000000        0x0
 .text          0x00000000        0x0 build/XC32-PIC32_ETH_SK_ETH795/production/_ext/1954962658/SNMP.o

.text%z397      0x00000000        0x0
 .text          0x00000000        0x0 build/XC32-PIC32_ETH_SK_ETH795/production/_ext/1954962658/SMTP.o

.text%z398      0x00000000        0x0
 .text          0x00000000        0x0 build/XC32-PIC32_ETH_SK_ETH795/production/_ext/1954962658/Reboot.o

.text%z399      0x00000000        0x0
 .text          0x00000000        0x0 build/XC32-PIC32_ETH_SK_ETH795/production/_ext/1954962658/Random.o

.text%z400      0x00000000        0x0
 .text          0x00000000        0x0 build/XC32-PIC32_ETH_SK_ETH795/production/_ext/1954962658/RSA.o

.text%z401      0x00000000        0x0
 .text          0x00000000        0x0 build/XC32-PIC32_ETH_SK_ETH795/production/_ext/1954962658/NBNS.o

.text%z402      0x00000000        0x0
 .text          0x00000000        0x0 build/XC32-PIC32_ETH_SK_ETH795/production/_ext/1954962658/MPFS2.o

.text%z403      0x00000000        0x0
 .text          0x00000000        0x0 build/XC32-PIC32_ETH_SK_ETH795/production/_ext/1954962658/LCDBlocking.o

.text%z404      0x00000000        0x0
 .text          0x00000000        0x0 build/XC32-PIC32_ETH_SK_ETH795/production/_ext/1954962658/Hashes.o

.text%z405      0x00000000        0x0
 .text          0x00000000        0x0 build/XC32-PIC32_ETH_SK_ETH795/production/_ext/1954962658/HTTP2.o

.text%z406      0x00000000        0x0
 .text          0x00000000        0x0 build/XC32-PIC32_ETH_SK_ETH795/production/_ext/1954962658/FileSystem.o

.text%z407      0x00000000        0x0
 .text          0x00000000        0x0 build/XC32-PIC32_ETH_SK_ETH795/production/_ext/1954962658/FTP.o

.text%z408      0x00000000        0x0
 .text          0x00000000        0x0 build/XC32-PIC32_ETH_SK_ETH795/production/_ext/1954962658/ENCX24J600.o

.text%z409      0x00000000        0x0
 .text          0x00000000        0x0 build/XC32-PIC32_ETH_SK_ETH795/production/_ext/1954962658/ENC28J60.o

.text%z410      0x00000000        0x0
 .text          0x00000000        0x0 build/XC32-PIC32_ETH_SK_ETH795/production/_ext/1954962658/DynDNS.o

.text%z411      0x00000000        0x0
 .text          0x00000000        0x0 build/XC32-PIC32_ETH_SK_ETH795/production/_ext/1954962658/DNSs.o

.text%z412      0x00000000        0x0
 .text          0x00000000        0x0 build/XC32-PIC32_ETH_SK_ETH795/production/_ext/1954962658/DNS.o

.text%z413      0x00000000        0x0
 .text          0x00000000        0x0 build/XC32-PIC32_ETH_SK_ETH795/production/_ext/1954962658/DHCPs.o

.text%z414      0x00000000        0x0
 .text          0x00000000        0x0 build/XC32-PIC32_ETH_SK_ETH795/production/_ext/1954962658/BigInt_helper_PIC32.o

.text%z415      0x00000000        0x0
 .text          0x00000000        0x0 build/XC32-PIC32_ETH_SK_ETH795/production/_ext/1954962658/BigInt.o

.text%z416      0x00000000        0x0
 .text          0x00000000        0x0 build/XC32-PIC32_ETH_SK_ETH795/production/_ext/1954962658/BerkeleyAPI.o

.text%z417      0x00000000        0x0
 .text          0x00000000        0x0 build/XC32-PIC32_ETH_SK_ETH795/production/_ext/1954962658/AutoIP.o

.text%z418      0x00000000        0x0
 .text          0x00000000        0x0 build/XC32-PIC32_ETH_SK_ETH795/production/_ext/1954962658/Announce.o

.text%z419      0x00000000        0x0
 .text          0x00000000        0x0 build/XC32-PIC32_ETH_SK_ETH795/production/_ext/1954962658/ARCFOUR.o

.text%z420      0x00000000        0x0
 .text          0x00000000        0x0 c:/program files (x86)/microchip/xc32/v1.34/bin/bin/../../lib/gcc/pic32mx/4.5.2/../../../../pic32mx/lib\debug-exception-return.o

.text%z421      0x00000000        0x0
 .text          0x00000000        0x0 c:/program files (x86)/microchip/xc32/v1.34/bin/bin/../../lib/gcc/pic32mx/4.5.2/../../../../pic32mx/lib/./proc/32MX795F512L/crt0_mips32r2.o
